; ModuleID = 'test.cpp'
source_filename = "test.cpp"
target datalayout = "e-m:e-p270:32:32-p271:32:32-p272:64:64-i64:64-f80:128-n8:16:32:64-S128"
target triple = "x86_64-unknown-linux-gnu"

%"class.std::ios_base::Init" = type { i8 }
%"class.std::basic_ostream" = type { ptr, %"class.std::basic_ios" }
%"class.std::basic_ios" = type { %"class.std::ios_base", ptr, i8, i8, ptr, ptr, ptr, ptr }
%"class.std::ios_base" = type { ptr, i64, i64, i32, i32, i32, ptr, %"struct.std::ios_base::_Words", [8 x %"struct.std::ios_base::_Words"], i32, ptr, %"class.std::locale" }
%"struct.std::ios_base::_Words" = type { ptr, i64 }
%"class.std::locale" = type { ptr }
%"class.std::vector" = type { %"struct.std::_Vector_base" }
%"struct.std::_Vector_base" = type { %"struct.std::_Vector_base<std::thread, std::allocator<std::thread>>::_Vector_impl" }
%"struct.std::_Vector_base<std::thread, std::allocator<std::thread>>::_Vector_impl" = type { %"struct.std::_Vector_base<std::thread, std::allocator<std::thread>>::_Vector_impl_data" }
%"struct.std::_Vector_base<std::thread, std::allocator<std::thread>>::_Vector_impl_data" = type { ptr, ptr, ptr }
%"class.__gnu_cxx::__normal_iterator" = type { ptr }
%"class.std::thread" = type { %"class.std::thread::id" }
%"class.std::thread::id" = type { i64 }
%"class.std::unique_ptr" = type { %"class.std::__uniq_ptr_impl" }
%"class.std::__uniq_ptr_impl" = type { %"class.std::tuple" }
%"class.std::tuple" = type { %"struct.std::_Tuple_impl" }
%"struct.std::_Tuple_impl" = type { %"struct.std::_Head_base.1" }
%"struct.std::_Head_base.1" = type { ptr }
%"struct.std::thread::_Invoker" = type { %"class.std::tuple.2" }
%"class.std::tuple.2" = type { %"struct.std::_Tuple_impl.3" }
%"struct.std::_Tuple_impl.3" = type { %"struct.std::_Head_base.4" }
%"struct.std::_Head_base.4" = type { ptr }
%"struct.std::thread::_State_impl" = type { %"struct.std::thread::_State", %"struct.std::thread::_Invoker" }
%"struct.std::thread::_State" = type { ptr }
%"struct.std::_Index_tuple" = type { i8 }
%"struct.std::__invoke_other" = type { i8 }
%"struct.std::integral_constant" = type { i8 }

$_ZNSt6vectorISt6threadSaIS0_EEC2Ev = comdat any

$_ZNSt6vectorISt6threadSaIS0_EE12emplace_backIJRFvvEEEEvDpOT_ = comdat any

$_ZNSt6vectorISt6threadSaIS0_EE5beginEv = comdat any

$_ZNSt6vectorISt6threadSaIS0_EE3endEv = comdat any

$_ZN9__gnu_cxxneIPSt6threadSt6vectorIS1_SaIS1_EEEEbRKNS_17__normal_iteratorIT_T0_EESB_ = comdat any

$_ZNK9__gnu_cxx17__normal_iteratorIPSt6threadSt6vectorIS1_SaIS1_EEEdeEv = comdat any

$_ZN9__gnu_cxx17__normal_iteratorIPSt6threadSt6vectorIS1_SaIS1_EEEppEv = comdat any

$_ZNKSt13__atomic_baseIiEcviEv = comdat any

$_ZNSt6vectorISt6threadSaIS0_EED2Ev = comdat any

$_ZNSt12_Vector_baseISt6threadSaIS0_EEC2Ev = comdat any

$_ZNSt12_Vector_baseISt6threadSaIS0_EE12_Vector_implC2Ev = comdat any

$_ZNSaISt6threadEC2Ev = comdat any

$_ZNSt12_Vector_baseISt6threadSaIS0_EE17_Vector_impl_dataC2Ev = comdat any

$_ZN9__gnu_cxx13new_allocatorISt6threadEC2Ev = comdat any

$_ZSt8_DestroyIPSt6threadS0_EvT_S2_RSaIT0_E = comdat any

$_ZNSt12_Vector_baseISt6threadSaIS0_EE19_M_get_Tp_allocatorEv = comdat any

$__clang_call_terminate = comdat any

$_ZNSt12_Vector_baseISt6threadSaIS0_EED2Ev = comdat any

$_ZSt8_DestroyIPSt6threadEvT_S2_ = comdat any

$_ZNSt12_Destroy_auxILb0EE9__destroyIPSt6threadEEvT_S4_ = comdat any

$_ZSt8_DestroyISt6threadEvPT_ = comdat any

$_ZNSt6threadD2Ev = comdat any

$_ZNKSt6thread8joinableEv = comdat any

$_ZSteqNSt6thread2idES0_ = comdat any

$_ZNSt6thread2idC2Ev = comdat any

$_ZNSt12_Vector_baseISt6threadSaIS0_EE13_M_deallocateEPS0_m = comdat any

$_ZNSt12_Vector_baseISt6threadSaIS0_EE12_Vector_implD2Ev = comdat any

$_ZNSt16allocator_traitsISaISt6threadEE10deallocateERS1_PS0_m = comdat any

$_ZN9__gnu_cxx13new_allocatorISt6threadE10deallocateEPS1_m = comdat any

$_ZNSaISt6threadED2Ev = comdat any

$_ZN9__gnu_cxx13new_allocatorISt6threadED2Ev = comdat any

$_ZNSt16allocator_traitsISaISt6threadEE9constructIS0_JRFvvEEEEvRS1_PT_DpOT0_ = comdat any

$_ZNSt6vectorISt6threadSaIS0_EE17_M_realloc_insertIJRFvvEEEEvN9__gnu_cxx17__normal_iteratorIPS0_S2_EEDpOT_ = comdat any

$_ZN9__gnu_cxx13new_allocatorISt6threadE9constructIS1_JRFvvEEEEvPT_DpOT0_ = comdat any

$_ZNSt6threadC2IRFvvEJEvEEOT_DpOT0_ = comdat any

$_ZNSt6thread13_S_make_stateINS_8_InvokerISt5tupleIJPFvvEEEEEEESt10unique_ptrINS_6_StateESt14default_deleteIS8_EEOT_ = comdat any

$_ZNSt6thread14__make_invokerIRFvvEJEEENS_8_InvokerISt5tupleIJNSt5decayIT_E4typeEDpNS5_IT0_E4typeEEEEEOS6_DpOS9_ = comdat any

$_ZNSt10unique_ptrINSt6thread6_StateESt14default_deleteIS1_EED2Ev = comdat any

$_ZNSt6thread11_State_implINS_8_InvokerISt5tupleIJPFvvEEEEEEC2EOS6_ = comdat any

$_ZNSt10unique_ptrINSt6thread6_StateESt14default_deleteIS1_EEC2IS3_vEEPS1_ = comdat any

$_ZNSt6thread6_StateC2Ev = comdat any

$_ZNSt6thread8_InvokerISt5tupleIJPFvvEEEEC2EOS5_ = comdat any

$_ZNSt6thread11_State_implINS_8_InvokerISt5tupleIJPFvvEEEEEED2Ev = comdat any

$_ZNSt6thread11_State_implINS_8_InvokerISt5tupleIJPFvvEEEEEED0Ev = comdat any

$_ZNSt6thread11_State_implINS_8_InvokerISt5tupleIJPFvvEEEEEE6_M_runEv = comdat any

$_ZNSt5tupleIJPFvvEEEC2EOS2_ = comdat any

$_ZNSt11_Tuple_implILm0EJPFvvEEEC2EOS2_ = comdat any

$_ZNSt11_Tuple_implILm0EJPFvvEEE7_M_headERS2_ = comdat any

$_ZNSt10_Head_baseILm0EPFvvELb0EEC2IS1_EEOT_ = comdat any

$_ZNSt10_Head_baseILm0EPFvvELb0EE7_M_headERS2_ = comdat any

$_ZNSt6thread8_InvokerISt5tupleIJPFvvEEEEclEv = comdat any

$_ZNSt6thread8_InvokerISt5tupleIJPFvvEEEE9_M_invokeIJLm0EEEEvSt12_Index_tupleIJXspT_EEE = comdat any

$_ZSt8__invokeIPFvvEJEENSt15__invoke_resultIT_JDpT0_EE4typeEOS3_DpOS4_ = comdat any

$_ZSt3getILm0EJPFvvEEEONSt13tuple_elementIXT_ESt5tupleIJDpT0_EEE4typeEOS6_ = comdat any

$_ZSt13__invoke_implIvPFvvEJEET_St14__invoke_otherOT0_DpOT1_ = comdat any

$_ZSt3getILm0EJPFvvEEERNSt13tuple_elementIXT_ESt5tupleIJDpT0_EEE4typeERS6_ = comdat any

$_ZSt12__get_helperILm0EPFvvEJEERT0_RSt11_Tuple_implIXT_EJS2_DpT1_EE = comdat any

$_ZNSt15__uniq_ptr_implINSt6thread6_StateESt14default_deleteIS1_EEC2EPS1_ = comdat any

$_ZNSt5tupleIJPNSt6thread6_StateESt14default_deleteIS1_EEEC2IS2_S4_Lb1EEEv = comdat any

$_ZNSt15__uniq_ptr_implINSt6thread6_StateESt14default_deleteIS1_EE6_M_ptrEv = comdat any

$_ZNSt11_Tuple_implILm0EJPNSt6thread6_StateESt14default_deleteIS1_EEEC2Ev = comdat any

$_ZNSt11_Tuple_implILm1EJSt14default_deleteINSt6thread6_StateEEEEC2Ev = comdat any

$_ZNSt10_Head_baseILm0EPNSt6thread6_StateELb0EEC2Ev = comdat any

$_ZNSt10_Head_baseILm1ESt14default_deleteINSt6thread6_StateEELb1EEC2Ev = comdat any

$_ZSt3getILm0EJPNSt6thread6_StateESt14default_deleteIS1_EEERNSt13tuple_elementIXT_ESt5tupleIJDpT0_EEE4typeERS9_ = comdat any

$_ZSt12__get_helperILm0EPNSt6thread6_StateEJSt14default_deleteIS1_EEERT0_RSt11_Tuple_implIXT_EJS5_DpT1_EE = comdat any

$_ZNSt11_Tuple_implILm0EJPNSt6thread6_StateESt14default_deleteIS1_EEE7_M_headERS5_ = comdat any

$_ZNSt10_Head_baseILm0EPNSt6thread6_StateELb0EE7_M_headERS3_ = comdat any

$_ZNSt5tupleIJPFvvEEEC2IvLb1EEERKS1_ = comdat any

$_ZNSt11_Tuple_implILm0EJPFvvEEEC2ERKS1_ = comdat any

$_ZNSt10_Head_baseILm0EPFvvELb0EEC2ERKS1_ = comdat any

$_ZNSt10unique_ptrINSt6thread6_StateESt14default_deleteIS1_EE11get_deleterEv = comdat any

$_ZNKSt14default_deleteINSt6thread6_StateEEclEPS1_ = comdat any

$_ZNSt15__uniq_ptr_implINSt6thread6_StateESt14default_deleteIS1_EE10_M_deleterEv = comdat any

$_ZSt3getILm1EJPNSt6thread6_StateESt14default_deleteIS1_EEERNSt13tuple_elementIXT_ESt5tupleIJDpT0_EEE4typeERS9_ = comdat any

$_ZSt12__get_helperILm1ESt14default_deleteINSt6thread6_StateEEJEERT0_RSt11_Tuple_implIXT_EJS4_DpT1_EE = comdat any

$_ZNSt11_Tuple_implILm1EJSt14default_deleteINSt6thread6_StateEEEE7_M_headERS4_ = comdat any

$_ZNSt10_Head_baseILm1ESt14default_deleteINSt6thread6_StateEELb1EE7_M_headERS4_ = comdat any

$_ZNKSt6vectorISt6threadSaIS0_EE12_M_check_lenEmPKc = comdat any

$_ZN9__gnu_cxxmiIPSt6threadSt6vectorIS1_SaIS1_EEEENS_17__normal_iteratorIT_T0_E15difference_typeERKS9_SC_ = comdat any

$_ZNSt12_Vector_baseISt6threadSaIS0_EE11_M_allocateEm = comdat any

$_ZNSt6vectorISt6threadSaIS0_EE11_S_relocateEPS0_S3_S3_RS1_ = comdat any

$_ZNK9__gnu_cxx17__normal_iteratorIPSt6threadSt6vectorIS1_SaIS1_EEE4baseEv = comdat any

$_ZNSt16allocator_traitsISaISt6threadEE7destroyIS0_EEvRS1_PT_ = comdat any

$_ZNKSt6vectorISt6threadSaIS0_EE8max_sizeEv = comdat any

$_ZNKSt6vectorISt6threadSaIS0_EE4sizeEv = comdat any

$_ZSt3maxImERKT_S2_S2_ = comdat any

$_ZNSt6vectorISt6threadSaIS0_EE11_S_max_sizeERKS1_ = comdat any

$_ZNKSt12_Vector_baseISt6threadSaIS0_EE19_M_get_Tp_allocatorEv = comdat any

$_ZNSt16allocator_traitsISaISt6threadEE8max_sizeERKS1_ = comdat any

$_ZSt3minImERKT_S2_S2_ = comdat any

$_ZNK9__gnu_cxx13new_allocatorISt6threadE8max_sizeEv = comdat any

$_ZNSt16allocator_traitsISaISt6threadEE8allocateERS1_m = comdat any

$_ZN9__gnu_cxx13new_allocatorISt6threadE8allocateEmPKv = comdat any

$_ZNSt6vectorISt6threadSaIS0_EE14_S_do_relocateEPS0_S3_S3_RS1_St17integral_constantIbLb1EE = comdat any

$_ZSt12__relocate_aIPSt6threadS1_SaIS0_EET0_T_S4_S3_RT1_ = comdat any

$_ZSt14__relocate_a_1IPSt6threadS1_SaIS0_EET0_T_S4_S3_RT1_ = comdat any

$_ZSt12__niter_baseIPSt6threadET_S2_ = comdat any

$_ZSt19__relocate_object_aISt6threadS0_SaIS0_EEvPT_PT0_RT1_ = comdat any

$_ZNSt16allocator_traitsISaISt6threadEE9constructIS0_JS0_EEEvRS1_PT_DpOT0_ = comdat any

$_ZN9__gnu_cxx13new_allocatorISt6threadE9constructIS1_JS1_EEEvPT_DpOT0_ = comdat any

$_ZNSt6threadC2EOS_ = comdat any

$_ZNSt6thread4swapERS_ = comdat any

$_ZSt4swapINSt6thread2idEENSt9enable_ifIXsr6__and_ISt6__not_ISt15__is_tuple_likeIT_EESt21is_move_constructibleIS5_ESt18is_move_assignableIS5_EEE5valueEvE4typeERS5_SE_ = comdat any

$_ZN9__gnu_cxx13new_allocatorISt6threadE7destroyIS1_EEvPT_ = comdat any

$_ZN9__gnu_cxx17__normal_iteratorIPSt6threadSt6vectorIS1_SaIS1_EEEC2ERKS2_ = comdat any

$_ZStanSt12memory_orderSt23__memory_order_modifier = comdat any

$_ZTVNSt6thread11_State_implINS_8_InvokerISt5tupleIJPFvvEEEEEEE = comdat any

$_ZTSNSt6thread11_State_implINS_8_InvokerISt5tupleIJPFvvEEEEEEE = comdat any

$_ZTINSt6thread11_State_implINS_8_InvokerISt5tupleIJPFvvEEEEEEE = comdat any

@_ZStL8__ioinit = internal global %"class.std::ios_base::Init" zeroinitializer, align 1, !dbg !0
@__dso_handle = external hidden global i8
@cnt = dso_local global { i32 } zeroinitializer, align 4, !dbg !7
@_ZSt4cout = external global %"class.std::basic_ostream", align 8
@.str = private unnamed_addr constant [24 x i8] c"Final counter value is \00", align 1, !dbg !1260
@_ZTVNSt6thread11_State_implINS_8_InvokerISt5tupleIJPFvvEEEEEEE = linkonce_odr dso_local unnamed_addr constant { [5 x ptr] } { [5 x ptr] [ptr null, ptr @_ZTINSt6thread11_State_implINS_8_InvokerISt5tupleIJPFvvEEEEEEE, ptr @_ZNSt6thread11_State_implINS_8_InvokerISt5tupleIJPFvvEEEEEED2Ev, ptr @_ZNSt6thread11_State_implINS_8_InvokerISt5tupleIJPFvvEEEEEED0Ev, ptr @_ZNSt6thread11_State_implINS_8_InvokerISt5tupleIJPFvvEEEEEE6_M_runEv] }, comdat, align 8
@_ZTVN10__cxxabiv120__si_class_type_infoE = external global ptr
@_ZTSNSt6thread11_State_implINS_8_InvokerISt5tupleIJPFvvEEEEEEE = linkonce_odr dso_local constant [59 x i8] c"NSt6thread11_State_implINS_8_InvokerISt5tupleIJPFvvEEEEEEE\00", comdat, align 1
@_ZTINSt6thread6_StateE = external constant ptr
@_ZTINSt6thread11_State_implINS_8_InvokerISt5tupleIJPFvvEEEEEEE = linkonce_odr dso_local constant { ptr, ptr, ptr } { ptr getelementptr inbounds (ptr, ptr @_ZTVN10__cxxabiv120__si_class_type_infoE, i64 2), ptr @_ZTSNSt6thread11_State_implINS_8_InvokerISt5tupleIJPFvvEEEEEEE, ptr @_ZTINSt6thread6_StateE }, comdat, align 8
@_ZTVNSt6thread6_StateE = external unnamed_addr constant { [5 x ptr] }, align 8
@.str.1 = private unnamed_addr constant [26 x i8] c"vector::_M_realloc_insert\00", align 1, !dbg !1265
@llvm.global_ctors = appending global [1 x { i32, ptr, ptr }] [{ i32, ptr, ptr } { i32 65535, ptr @_GLOBAL__sub_I_test.cpp, ptr null }]

; Function Attrs: noinline uwtable
define internal void @__cxx_global_var_init() #0 section ".text.startup" !dbg !2161 {
  call void @_ZNSt8ios_base4InitC1Ev(ptr noundef nonnull align 1 dereferenceable(1) @_ZStL8__ioinit), !dbg !2162
  %1 = call i32 @__cxa_atexit(ptr @_ZNSt8ios_base4InitD1Ev, ptr @_ZStL8__ioinit, ptr @__dso_handle) #3, !dbg !2164
  ret void, !dbg !2162
}

declare void @_ZNSt8ios_base4InitC1Ev(ptr noundef nonnull align 1 dereferenceable(1)) unnamed_addr #1

; Function Attrs: nounwind
declare void @_ZNSt8ios_base4InitD1Ev(ptr noundef nonnull align 1 dereferenceable(1)) unnamed_addr #2

; Function Attrs: nounwind
declare i32 @__cxa_atexit(ptr, ptr, ptr) #3

; Function Attrs: mustprogress noinline nounwind optnone uwtable
define dso_local void @_Z1fv() #4 !dbg !2165 {
  %1 = alloca ptr, align 8
  %2 = alloca i32, align 4
  %3 = alloca i32, align 4
  %4 = alloca i32, align 4
  %5 = alloca i32, align 4
  %6 = alloca i32, align 4
  call void @llvm.dbg.declare(metadata ptr %6, metadata !2166, metadata !DIExpression()), !dbg !2168
  store i32 0, ptr %6, align 4, !dbg !2168
  br label %7, !dbg !2169

7:                                                ; preds = %31, %0
  %8 = load i32, ptr %6, align 4, !dbg !2170
  %9 = icmp slt i32 %8, 1000, !dbg !2172
  br i1 %9, label %10, label %34, !dbg !2173

10:                                               ; preds = %7
  store ptr @cnt, ptr %1, align 8
  call void @llvm.dbg.declare(metadata ptr %1, metadata !2174, metadata !DIExpression()), !dbg !2177
  store i32 1, ptr %2, align 4
  call void @llvm.dbg.declare(metadata ptr %2, metadata !2180, metadata !DIExpression()), !dbg !2181
  store i32 0, ptr %3, align 4
  call void @llvm.dbg.declare(metadata ptr %3, metadata !2182, metadata !DIExpression()), !dbg !2183
  %11 = load ptr, ptr %1, align 8
  %12 = load i32, ptr %3, align 4, !dbg !2184
  %13 = load i32, ptr %2, align 4, !dbg !2185
  store i32 %13, ptr %4, align 4, !dbg !2186
  switch i32 %12, label %14 [
    i32 1, label %17
    i32 2, label %17
    i32 3, label %20
    i32 4, label %23
    i32 5, label %26
  ], !dbg !2186

14:                                               ; preds = %10
  %15 = load i32, ptr %4, align 4, !dbg !2186
  %16 = atomicrmw add ptr %11, i32 %15 monotonic, align 4, !dbg !2186
  store i32 %16, ptr %5, align 4, !dbg !2186
  br label %29, !dbg !2186

17:                                               ; preds = %10, %10
  %18 = load i32, ptr %4, align 4, !dbg !2186
  %19 = atomicrmw add ptr %11, i32 %18 acquire, align 4, !dbg !2186
  store i32 %19, ptr %5, align 4, !dbg !2186
  br label %29, !dbg !2186

20:                                               ; preds = %10
  %21 = load i32, ptr %4, align 4, !dbg !2186
  %22 = atomicrmw add ptr %11, i32 %21 release, align 4, !dbg !2186
  store i32 %22, ptr %5, align 4, !dbg !2186
  br label %29, !dbg !2186

23:                                               ; preds = %10
  %24 = load i32, ptr %4, align 4, !dbg !2186
  %25 = atomicrmw add ptr %11, i32 %24 acq_rel, align 4, !dbg !2186
  store i32 %25, ptr %5, align 4, !dbg !2186
  br label %29, !dbg !2186

26:                                               ; preds = %10
  %27 = load i32, ptr %4, align 4, !dbg !2186
  %28 = atomicrmw add ptr %11, i32 %27 seq_cst, align 4, !dbg !2186
  store i32 %28, ptr %5, align 4, !dbg !2186
  br label %29, !dbg !2186

29:                                               ; preds = %14, %17, %20, %23, %26
  %30 = load i32, ptr %5, align 4, !dbg !2186
  br label %31, !dbg !2187

31:                                               ; preds = %29
  %32 = load i32, ptr %6, align 4, !dbg !2188
  %33 = add nsw i32 %32, 1, !dbg !2188
  store i32 %33, ptr %6, align 4, !dbg !2188
  br label %7, !dbg !2189, !llvm.loop !2190

34:                                               ; preds = %7
  ret void, !dbg !2193
}

; Function Attrs: nocallback nofree nosync nounwind speculatable willreturn memory(none)
declare void @llvm.dbg.declare(metadata, metadata, metadata) #5

; Function Attrs: mustprogress noinline norecurse optnone uwtable
define dso_local noundef i32 @main() #6 personality ptr @__gxx_personality_v0 !dbg !2194 {
  %1 = alloca i32, align 4
  %2 = alloca %"class.std::vector", align 8
  %3 = alloca i32, align 4
  %4 = alloca ptr, align 8
  %5 = alloca i32, align 4
  %6 = alloca ptr, align 8
  %7 = alloca %"class.__gnu_cxx::__normal_iterator", align 8
  %8 = alloca %"class.__gnu_cxx::__normal_iterator", align 8
  %9 = alloca ptr, align 8
  store i32 0, ptr %1, align 4
  call void @llvm.dbg.declare(metadata ptr %2, metadata !2195, metadata !DIExpression()), !dbg !2196
  call void @_ZNSt6vectorISt6threadSaIS0_EEC2Ev(ptr noundef nonnull align 8 dereferenceable(24) %2) #3, !dbg !2196
  call void @llvm.dbg.declare(metadata ptr %3, metadata !2197, metadata !DIExpression()), !dbg !2199
  store i32 0, ptr %3, align 4, !dbg !2199
  br label %10, !dbg !2200

10:                                               ; preds = %15, %0
  %11 = load i32, ptr %3, align 4, !dbg !2201
  %12 = icmp slt i32 %11, 10, !dbg !2203
  br i1 %12, label %13, label %22, !dbg !2204

13:                                               ; preds = %10
  invoke void @_ZNSt6vectorISt6threadSaIS0_EE12emplace_backIJRFvvEEEEvDpOT_(ptr noundef nonnull align 8 dereferenceable(24) %2, ptr noundef nonnull @_Z1fv)
          to label %14 unwind label %18, !dbg !2205

14:                                               ; preds = %13
  br label %15, !dbg !2207

15:                                               ; preds = %14
  %16 = load i32, ptr %3, align 4, !dbg !2208
  %17 = add nsw i32 %16, 1, !dbg !2208
  store i32 %17, ptr %3, align 4, !dbg !2208
  br label %10, !dbg !2209, !llvm.loop !2210

18:                                               ; preds = %42, %39, %37, %31, %13
  %19 = landingpad { ptr, i32 }
          cleanup, !dbg !2212
  %20 = extractvalue { ptr, i32 } %19, 0, !dbg !2212
  store ptr %20, ptr %4, align 8, !dbg !2212
  %21 = extractvalue { ptr, i32 } %19, 1, !dbg !2212
  store i32 %21, ptr %5, align 4, !dbg !2212
  call void @_ZNSt6vectorISt6threadSaIS0_EED2Ev(ptr noundef nonnull align 8 dereferenceable(24) %2) #3, !dbg !2213
  br label %46, !dbg !2213

22:                                               ; preds = %10
  call void @llvm.dbg.declare(metadata ptr %6, metadata !2214, metadata !DIExpression()), !dbg !2216
  store ptr %2, ptr %6, align 8, !dbg !2217
  call void @llvm.dbg.declare(metadata ptr %7, metadata !2218, metadata !DIExpression()), !dbg !2216
  %23 = load ptr, ptr %6, align 8, !dbg !2219
  %24 = call ptr @_ZNSt6vectorISt6threadSaIS0_EE5beginEv(ptr noundef nonnull align 8 dereferenceable(24) %23) #3, !dbg !2219
  %25 = getelementptr inbounds %"class.__gnu_cxx::__normal_iterator", ptr %7, i32 0, i32 0, !dbg !2219
  store ptr %24, ptr %25, align 8, !dbg !2219
  call void @llvm.dbg.declare(metadata ptr %8, metadata !2220, metadata !DIExpression()), !dbg !2216
  %26 = load ptr, ptr %6, align 8, !dbg !2219
  %27 = call ptr @_ZNSt6vectorISt6threadSaIS0_EE3endEv(ptr noundef nonnull align 8 dereferenceable(24) %26) #3, !dbg !2219
  %28 = getelementptr inbounds %"class.__gnu_cxx::__normal_iterator", ptr %8, i32 0, i32 0, !dbg !2219
  store ptr %27, ptr %28, align 8, !dbg !2219
  br label %29, !dbg !2219

29:                                               ; preds = %35, %22
  %30 = call noundef zeroext i1 @_ZN9__gnu_cxxneIPSt6threadSt6vectorIS1_SaIS1_EEEEbRKNS_17__normal_iteratorIT_T0_EESB_(ptr noundef nonnull align 8 dereferenceable(8) %7, ptr noundef nonnull align 8 dereferenceable(8) %8) #3, !dbg !2219
  br i1 %30, label %31, label %37, !dbg !2219

31:                                               ; preds = %29
  call void @llvm.dbg.declare(metadata ptr %9, metadata !2221, metadata !DIExpression()), !dbg !2223
  %32 = call noundef nonnull align 8 dereferenceable(8) ptr @_ZNK9__gnu_cxx17__normal_iteratorIPSt6threadSt6vectorIS1_SaIS1_EEEdeEv(ptr noundef nonnull align 8 dereferenceable(8) %7) #3, !dbg !2224
  store ptr %32, ptr %9, align 8, !dbg !2223
  %33 = load ptr, ptr %9, align 8, !dbg !2225
  invoke void @_ZNSt6thread4joinEv(ptr noundef nonnull align 8 dereferenceable(8) %33)
          to label %34 unwind label %18, !dbg !2227

34:                                               ; preds = %31
  br label %35, !dbg !2228

35:                                               ; preds = %34
  %36 = call noundef nonnull align 8 dereferenceable(8) ptr @_ZN9__gnu_cxx17__normal_iteratorIPSt6threadSt6vectorIS1_SaIS1_EEEppEv(ptr noundef nonnull align 8 dereferenceable(8) %7) #3, !dbg !2219
  br label %29, !dbg !2219, !llvm.loop !2229

37:                                               ; preds = %29
  %38 = invoke noundef nonnull align 8 dereferenceable(8) ptr @_ZStlsISt11char_traitsIcEERSt13basic_ostreamIcT_ES5_PKc(ptr noundef nonnull align 8 dereferenceable(8) @_ZSt4cout, ptr noundef @.str)
          to label %39 unwind label %18, !dbg !2231

39:                                               ; preds = %37
  %40 = call noundef i32 @_ZNKSt13__atomic_baseIiEcviEv(ptr noundef nonnull align 4 dereferenceable(4) @cnt) #3, !dbg !2232
  %41 = invoke noundef nonnull align 8 dereferenceable(8) ptr @_ZNSolsEi(ptr noundef nonnull align 8 dereferenceable(8) %38, i32 noundef %40)
          to label %42 unwind label %18, !dbg !2233

42:                                               ; preds = %39
  %43 = invoke noundef nonnull align 8 dereferenceable(8) ptr @_ZStlsISt11char_traitsIcEERSt13basic_ostreamIcT_ES5_c(ptr noundef nonnull align 8 dereferenceable(8) %41, i8 noundef signext 10)
          to label %44 unwind label %18, !dbg !2234

44:                                               ; preds = %42
  call void @_ZNSt6vectorISt6threadSaIS0_EED2Ev(ptr noundef nonnull align 8 dereferenceable(24) %2) #3, !dbg !2213
  %45 = load i32, ptr %1, align 4, !dbg !2213
  ret i32 %45, !dbg !2213

46:                                               ; preds = %18
  %47 = load ptr, ptr %4, align 8, !dbg !2213
  %48 = load i32, ptr %5, align 4, !dbg !2213
  %49 = insertvalue { ptr, i32 } poison, ptr %47, 0, !dbg !2213
  %50 = insertvalue { ptr, i32 } %49, i32 %48, 1, !dbg !2213
  resume { ptr, i32 } %50, !dbg !2213
}

; Function Attrs: noinline nounwind optnone uwtable
define linkonce_odr dso_local void @_ZNSt6vectorISt6threadSaIS0_EEC2Ev(ptr noundef nonnull align 8 dereferenceable(24) %0) unnamed_addr #7 comdat align 2 !dbg !2235 {
  %2 = alloca ptr, align 8
  store ptr %0, ptr %2, align 8
  call void @llvm.dbg.declare(metadata ptr %2, metadata !2236, metadata !DIExpression()), !dbg !2238
  %3 = load ptr, ptr %2, align 8
  call void @_ZNSt12_Vector_baseISt6threadSaIS0_EEC2Ev(ptr noundef nonnull align 8 dereferenceable(24) %3) #3, !dbg !2239
  ret void, !dbg !2240
}

; Function Attrs: mustprogress noinline optnone uwtable
define linkonce_odr dso_local void @_ZNSt6vectorISt6threadSaIS0_EE12emplace_backIJRFvvEEEEvDpOT_(ptr noundef nonnull align 8 dereferenceable(24) %0, ptr noundef nonnull %1) #8 comdat align 2 !dbg !2241 {
  %3 = alloca ptr, align 8
  %4 = alloca ptr, align 8
  %5 = alloca %"class.__gnu_cxx::__normal_iterator", align 8
  store ptr %0, ptr %3, align 8
  call void @llvm.dbg.declare(metadata ptr %3, metadata !2250, metadata !DIExpression()), !dbg !2251
  store ptr %1, ptr %4, align 8
  call void @llvm.dbg.declare(metadata ptr %4, metadata !2252, metadata !DIExpression()), !dbg !2253
  %6 = load ptr, ptr %3, align 8
  %7 = getelementptr inbounds %"struct.std::_Vector_base", ptr %6, i32 0, i32 0, !dbg !2254
  %8 = getelementptr inbounds %"struct.std::_Vector_base<std::thread, std::allocator<std::thread>>::_Vector_impl_data", ptr %7, i32 0, i32 1, !dbg !2256
  %9 = load ptr, ptr %8, align 8, !dbg !2256
  %10 = getelementptr inbounds %"struct.std::_Vector_base", ptr %6, i32 0, i32 0, !dbg !2257
  %11 = getelementptr inbounds %"struct.std::_Vector_base<std::thread, std::allocator<std::thread>>::_Vector_impl_data", ptr %10, i32 0, i32 2, !dbg !2258
  %12 = load ptr, ptr %11, align 8, !dbg !2258
  %13 = icmp ne ptr %9, %12, !dbg !2259
  br i1 %13, label %14, label %24, !dbg !2260

14:                                               ; preds = %2
  %15 = getelementptr inbounds %"struct.std::_Vector_base", ptr %6, i32 0, i32 0, !dbg !2261
  %16 = getelementptr inbounds %"struct.std::_Vector_base", ptr %6, i32 0, i32 0, !dbg !2263
  %17 = getelementptr inbounds %"struct.std::_Vector_base<std::thread, std::allocator<std::thread>>::_Vector_impl_data", ptr %16, i32 0, i32 1, !dbg !2264
  %18 = load ptr, ptr %17, align 8, !dbg !2264
  %19 = load ptr, ptr %4, align 8, !dbg !2265
  call void @_ZNSt16allocator_traitsISaISt6threadEE9constructIS0_JRFvvEEEEvRS1_PT_DpOT0_(ptr noundef nonnull align 1 dereferenceable(1) %15, ptr noundef %18, ptr noundef nonnull %19), !dbg !2266
  %20 = getelementptr inbounds %"struct.std::_Vector_base", ptr %6, i32 0, i32 0, !dbg !2267
  %21 = getelementptr inbounds %"struct.std::_Vector_base<std::thread, std::allocator<std::thread>>::_Vector_impl_data", ptr %20, i32 0, i32 1, !dbg !2268
  %22 = load ptr, ptr %21, align 8, !dbg !2269
  %23 = getelementptr inbounds %"class.std::thread", ptr %22, i32 1, !dbg !2269
  store ptr %23, ptr %21, align 8, !dbg !2269
  br label %30, !dbg !2270

24:                                               ; preds = %2
  %25 = call ptr @_ZNSt6vectorISt6threadSaIS0_EE3endEv(ptr noundef nonnull align 8 dereferenceable(24) %6) #3, !dbg !2271
  %26 = getelementptr inbounds %"class.__gnu_cxx::__normal_iterator", ptr %5, i32 0, i32 0, !dbg !2271
  store ptr %25, ptr %26, align 8, !dbg !2271
  %27 = load ptr, ptr %4, align 8, !dbg !2272
  %28 = getelementptr inbounds %"class.__gnu_cxx::__normal_iterator", ptr %5, i32 0, i32 0, !dbg !2273
  %29 = load ptr, ptr %28, align 8, !dbg !2273
  call void @_ZNSt6vectorISt6threadSaIS0_EE17_M_realloc_insertIJRFvvEEEEvN9__gnu_cxx17__normal_iteratorIPS0_S2_EEDpOT_(ptr noundef nonnull align 8 dereferenceable(24) %6, ptr %29, ptr noundef nonnull %27), !dbg !2273
  br label %30

30:                                               ; preds = %24, %14
  ret void, !dbg !2274
}

declare i32 @__gxx_personality_v0(...)

; Function Attrs: mustprogress noinline nounwind optnone uwtable
define linkonce_odr dso_local ptr @_ZNSt6vectorISt6threadSaIS0_EE5beginEv(ptr noundef nonnull align 8 dereferenceable(24) %0) #4 comdat align 2 !dbg !2275 {
  %2 = alloca %"class.__gnu_cxx::__normal_iterator", align 8
  %3 = alloca ptr, align 8
  store ptr %0, ptr %3, align 8
  call void @llvm.dbg.declare(metadata ptr %3, metadata !2276, metadata !DIExpression()), !dbg !2277
  %4 = load ptr, ptr %3, align 8
  %5 = getelementptr inbounds %"struct.std::_Vector_base", ptr %4, i32 0, i32 0, !dbg !2278
  %6 = getelementptr inbounds %"struct.std::_Vector_base<std::thread, std::allocator<std::thread>>::_Vector_impl_data", ptr %5, i32 0, i32 0, !dbg !2279
  call void @_ZN9__gnu_cxx17__normal_iteratorIPSt6threadSt6vectorIS1_SaIS1_EEEC2ERKS2_(ptr noundef nonnull align 8 dereferenceable(8) %2, ptr noundef nonnull align 8 dereferenceable(8) %6) #3, !dbg !2280
  %7 = getelementptr inbounds %"class.__gnu_cxx::__normal_iterator", ptr %2, i32 0, i32 0, !dbg !2281
  %8 = load ptr, ptr %7, align 8, !dbg !2281
  ret ptr %8, !dbg !2281
}

; Function Attrs: mustprogress noinline nounwind optnone uwtable
define linkonce_odr dso_local ptr @_ZNSt6vectorISt6threadSaIS0_EE3endEv(ptr noundef nonnull align 8 dereferenceable(24) %0) #4 comdat align 2 !dbg !2282 {
  %2 = alloca %"class.__gnu_cxx::__normal_iterator", align 8
  %3 = alloca ptr, align 8
  store ptr %0, ptr %3, align 8
  call void @llvm.dbg.declare(metadata ptr %3, metadata !2283, metadata !DIExpression()), !dbg !2284
  %4 = load ptr, ptr %3, align 8
  %5 = getelementptr inbounds %"struct.std::_Vector_base", ptr %4, i32 0, i32 0, !dbg !2285
  %6 = getelementptr inbounds %"struct.std::_Vector_base<std::thread, std::allocator<std::thread>>::_Vector_impl_data", ptr %5, i32 0, i32 1, !dbg !2286
  call void @_ZN9__gnu_cxx17__normal_iteratorIPSt6threadSt6vectorIS1_SaIS1_EEEC2ERKS2_(ptr noundef nonnull align 8 dereferenceable(8) %2, ptr noundef nonnull align 8 dereferenceable(8) %6) #3, !dbg !2287
  %7 = getelementptr inbounds %"class.__gnu_cxx::__normal_iterator", ptr %2, i32 0, i32 0, !dbg !2288
  %8 = load ptr, ptr %7, align 8, !dbg !2288
  ret ptr %8, !dbg !2288
}

; Function Attrs: mustprogress noinline nounwind optnone uwtable
define linkonce_odr dso_local noundef zeroext i1 @_ZN9__gnu_cxxneIPSt6threadSt6vectorIS1_SaIS1_EEEEbRKNS_17__normal_iteratorIT_T0_EESB_(ptr noundef nonnull align 8 dereferenceable(8) %0, ptr noundef nonnull align 8 dereferenceable(8) %1) #4 comdat !dbg !2289 {
  %3 = alloca ptr, align 8
  %4 = alloca ptr, align 8
  store ptr %0, ptr %3, align 8
  call void @llvm.dbg.declare(metadata ptr %3, metadata !2293, metadata !DIExpression()), !dbg !2294
  store ptr %1, ptr %4, align 8
  call void @llvm.dbg.declare(metadata ptr %4, metadata !2295, metadata !DIExpression()), !dbg !2296
  %5 = load ptr, ptr %3, align 8, !dbg !2297
  %6 = call noundef nonnull align 8 dereferenceable(8) ptr @_ZNK9__gnu_cxx17__normal_iteratorIPSt6threadSt6vectorIS1_SaIS1_EEE4baseEv(ptr noundef nonnull align 8 dereferenceable(8) %5) #3, !dbg !2298
  %7 = load ptr, ptr %6, align 8, !dbg !2298
  %8 = load ptr, ptr %4, align 8, !dbg !2299
  %9 = call noundef nonnull align 8 dereferenceable(8) ptr @_ZNK9__gnu_cxx17__normal_iteratorIPSt6threadSt6vectorIS1_SaIS1_EEE4baseEv(ptr noundef nonnull align 8 dereferenceable(8) %8) #3, !dbg !2300
  %10 = load ptr, ptr %9, align 8, !dbg !2300
  %11 = icmp ne ptr %7, %10, !dbg !2301
  ret i1 %11, !dbg !2302
}

; Function Attrs: mustprogress noinline nounwind optnone uwtable
define linkonce_odr dso_local noundef nonnull align 8 dereferenceable(8) ptr @_ZNK9__gnu_cxx17__normal_iteratorIPSt6threadSt6vectorIS1_SaIS1_EEEdeEv(ptr noundef nonnull align 8 dereferenceable(8) %0) #4 comdat align 2 !dbg !2303 {
  %2 = alloca ptr, align 8
  store ptr %0, ptr %2, align 8
  call void @llvm.dbg.declare(metadata ptr %2, metadata !2304, metadata !DIExpression()), !dbg !2306
  %3 = load ptr, ptr %2, align 8
  %4 = getelementptr inbounds %"class.__gnu_cxx::__normal_iterator", ptr %3, i32 0, i32 0, !dbg !2307
  %5 = load ptr, ptr %4, align 8, !dbg !2307
  ret ptr %5, !dbg !2308
}

declare void @_ZNSt6thread4joinEv(ptr noundef nonnull align 8 dereferenceable(8)) #1

; Function Attrs: mustprogress noinline nounwind optnone uwtable
define linkonce_odr dso_local noundef nonnull align 8 dereferenceable(8) ptr @_ZN9__gnu_cxx17__normal_iteratorIPSt6threadSt6vectorIS1_SaIS1_EEEppEv(ptr noundef nonnull align 8 dereferenceable(8) %0) #4 comdat align 2 !dbg !2309 {
  %2 = alloca ptr, align 8
  store ptr %0, ptr %2, align 8
  call void @llvm.dbg.declare(metadata ptr %2, metadata !2310, metadata !DIExpression()), !dbg !2312
  %3 = load ptr, ptr %2, align 8
  %4 = getelementptr inbounds %"class.__gnu_cxx::__normal_iterator", ptr %3, i32 0, i32 0, !dbg !2313
  %5 = load ptr, ptr %4, align 8, !dbg !2314
  %6 = getelementptr inbounds %"class.std::thread", ptr %5, i32 1, !dbg !2314
  store ptr %6, ptr %4, align 8, !dbg !2314
  ret ptr %3, !dbg !2315
}

declare noundef nonnull align 8 dereferenceable(8) ptr @_ZStlsISt11char_traitsIcEERSt13basic_ostreamIcT_ES5_c(ptr noundef nonnull align 8 dereferenceable(8), i8 noundef signext) #1

declare noundef nonnull align 8 dereferenceable(8) ptr @_ZStlsISt11char_traitsIcEERSt13basic_ostreamIcT_ES5_PKc(ptr noundef nonnull align 8 dereferenceable(8), ptr noundef) #1

declare noundef nonnull align 8 dereferenceable(8) ptr @_ZNSolsEi(ptr noundef nonnull align 8 dereferenceable(8), i32 noundef) #1

; Function Attrs: mustprogress noinline nounwind optnone uwtable
define linkonce_odr dso_local noundef i32 @_ZNKSt13__atomic_baseIiEcviEv(ptr noundef nonnull align 4 dereferenceable(4) %0) #4 comdat align 2 personality ptr @__gxx_personality_v0 !dbg !2316 {
  %2 = alloca ptr, align 8
  %3 = alloca i32, align 4
  %4 = alloca i32, align 4
  %5 = alloca i32, align 4
  %6 = alloca ptr, align 8
  store ptr %0, ptr %6, align 8
  call void @llvm.dbg.declare(metadata ptr %6, metadata !2317, metadata !DIExpression()), !dbg !2319
  %7 = load ptr, ptr %6, align 8
  store ptr %7, ptr %2, align 8
  call void @llvm.dbg.declare(metadata ptr %2, metadata !2320, metadata !DIExpression()), !dbg !2322
  store i32 5, ptr %3, align 4
  call void @llvm.dbg.declare(metadata ptr %3, metadata !2324, metadata !DIExpression()), !dbg !2325
  %8 = load ptr, ptr %2, align 8
  call void @llvm.dbg.declare(metadata ptr %4, metadata !2326, metadata !DIExpression()), !dbg !2327
  %9 = load i32, ptr %3, align 4, !dbg !2328
  %10 = invoke noundef i32 @_ZStanSt12memory_orderSt23__memory_order_modifier(i32 noundef %9, i32 noundef 65535)
          to label %11 unwind label %19, !dbg !2329

11:                                               ; preds = %1
  store i32 %10, ptr %4, align 4, !dbg !2327
  %12 = load i32, ptr %3, align 4, !dbg !2330
  switch i32 %12, label %13 [
    i32 1, label %15
    i32 2, label %15
    i32 5, label %17
  ], !dbg !2331

13:                                               ; preds = %11
  %14 = load atomic i32, ptr %8 monotonic, align 4, !dbg !2331
  store i32 %14, ptr %5, align 4, !dbg !2331
  br label %22, !dbg !2331

15:                                               ; preds = %11, %11
  %16 = load atomic i32, ptr %8 acquire, align 4, !dbg !2331
  store i32 %16, ptr %5, align 4, !dbg !2331
  br label %22, !dbg !2331

17:                                               ; preds = %11
  %18 = load atomic i32, ptr %8 seq_cst, align 4, !dbg !2331
  store i32 %18, ptr %5, align 4, !dbg !2331
  br label %22, !dbg !2331

19:                                               ; preds = %1
  %20 = landingpad { ptr, i32 }
          catch ptr null, !dbg !2329
  %21 = extractvalue { ptr, i32 } %20, 0, !dbg !2329
  call void @__clang_call_terminate(ptr %21) #15, !dbg !2329
  unreachable, !dbg !2329

22:                                               ; preds = %13, %15, %17
  %23 = load i32, ptr %5, align 4, !dbg !2331
  ret i32 %23, !dbg !2332
}

; Function Attrs: noinline nounwind optnone uwtable
define linkonce_odr dso_local void @_ZNSt6vectorISt6threadSaIS0_EED2Ev(ptr noundef nonnull align 8 dereferenceable(24) %0) unnamed_addr #7 comdat align 2 personality ptr @__gxx_personality_v0 !dbg !2333 {
  %2 = alloca ptr, align 8
  store ptr %0, ptr %2, align 8
  call void @llvm.dbg.declare(metadata ptr %2, metadata !2334, metadata !DIExpression()), !dbg !2335
  %3 = load ptr, ptr %2, align 8
  %4 = getelementptr inbounds %"struct.std::_Vector_base", ptr %3, i32 0, i32 0, !dbg !2336
  %5 = getelementptr inbounds %"struct.std::_Vector_base<std::thread, std::allocator<std::thread>>::_Vector_impl_data", ptr %4, i32 0, i32 0, !dbg !2338
  %6 = load ptr, ptr %5, align 8, !dbg !2338
  %7 = getelementptr inbounds %"struct.std::_Vector_base", ptr %3, i32 0, i32 0, !dbg !2339
  %8 = getelementptr inbounds %"struct.std::_Vector_base<std::thread, std::allocator<std::thread>>::_Vector_impl_data", ptr %7, i32 0, i32 1, !dbg !2340
  %9 = load ptr, ptr %8, align 8, !dbg !2340
  %10 = call noundef nonnull align 1 dereferenceable(1) ptr @_ZNSt12_Vector_baseISt6threadSaIS0_EE19_M_get_Tp_allocatorEv(ptr noundef nonnull align 8 dereferenceable(24) %3) #3, !dbg !2341
  invoke void @_ZSt8_DestroyIPSt6threadS0_EvT_S2_RSaIT0_E(ptr noundef %6, ptr noundef %9, ptr noundef nonnull align 1 dereferenceable(1) %10)
          to label %11 unwind label %12, !dbg !2342

11:                                               ; preds = %1
  call void @_ZNSt12_Vector_baseISt6threadSaIS0_EED2Ev(ptr noundef nonnull align 8 dereferenceable(24) %3) #3, !dbg !2343
  ret void, !dbg !2344

12:                                               ; preds = %1
  %13 = landingpad { ptr, i32 }
          catch ptr null, !dbg !2342
  %14 = extractvalue { ptr, i32 } %13, 0, !dbg !2342
  call void @__clang_call_terminate(ptr %14) #15, !dbg !2342
  unreachable, !dbg !2342
}

; Function Attrs: noinline nounwind optnone uwtable
define linkonce_odr dso_local void @_ZNSt12_Vector_baseISt6threadSaIS0_EEC2Ev(ptr noundef nonnull align 8 dereferenceable(24) %0) unnamed_addr #7 comdat align 2 !dbg !2345 {
  %2 = alloca ptr, align 8
  store ptr %0, ptr %2, align 8
  call void @llvm.dbg.declare(metadata ptr %2, metadata !2346, metadata !DIExpression()), !dbg !2348
  %3 = load ptr, ptr %2, align 8
  %4 = getelementptr inbounds %"struct.std::_Vector_base", ptr %3, i32 0, i32 0, !dbg !2349
  call void @_ZNSt12_Vector_baseISt6threadSaIS0_EE12_Vector_implC2Ev(ptr noundef nonnull align 8 dereferenceable(24) %4) #3, !dbg !2349
  ret void, !dbg !2350
}

; Function Attrs: noinline nounwind optnone uwtable
define linkonce_odr dso_local void @_ZNSt12_Vector_baseISt6threadSaIS0_EE12_Vector_implC2Ev(ptr noundef nonnull align 8 dereferenceable(24) %0) unnamed_addr #7 comdat align 2 !dbg !2351 {
  %2 = alloca ptr, align 8
  store ptr %0, ptr %2, align 8
  call void @llvm.dbg.declare(metadata ptr %2, metadata !2352, metadata !DIExpression()), !dbg !2354
  %3 = load ptr, ptr %2, align 8
  call void @_ZNSaISt6threadEC2Ev(ptr noundef nonnull align 1 dereferenceable(1) %3) #3, !dbg !2355
  call void @_ZNSt12_Vector_baseISt6threadSaIS0_EE17_Vector_impl_dataC2Ev(ptr noundef nonnull align 8 dereferenceable(24) %3) #3, !dbg !2356
  ret void, !dbg !2357
}

; Function Attrs: noinline nounwind optnone uwtable
define linkonce_odr dso_local void @_ZNSaISt6threadEC2Ev(ptr noundef nonnull align 1 dereferenceable(1) %0) unnamed_addr #7 comdat align 2 !dbg !2358 {
  %2 = alloca ptr, align 8
  store ptr %0, ptr %2, align 8
  call void @llvm.dbg.declare(metadata ptr %2, metadata !2359, metadata !DIExpression()), !dbg !2361
  %3 = load ptr, ptr %2, align 8
  call void @_ZN9__gnu_cxx13new_allocatorISt6threadEC2Ev(ptr noundef nonnull align 1 dereferenceable(1) %3) #3, !dbg !2362
  ret void, !dbg !2363
}

; Function Attrs: noinline nounwind optnone uwtable
define linkonce_odr dso_local void @_ZNSt12_Vector_baseISt6threadSaIS0_EE17_Vector_impl_dataC2Ev(ptr noundef nonnull align 8 dereferenceable(24) %0) unnamed_addr #7 comdat align 2 !dbg !2364 {
  %2 = alloca ptr, align 8
  store ptr %0, ptr %2, align 8
  call void @llvm.dbg.declare(metadata ptr %2, metadata !2365, metadata !DIExpression()), !dbg !2367
  %3 = load ptr, ptr %2, align 8
  %4 = getelementptr inbounds %"struct.std::_Vector_base<std::thread, std::allocator<std::thread>>::_Vector_impl_data", ptr %3, i32 0, i32 0, !dbg !2368
  store ptr null, ptr %4, align 8, !dbg !2368
  %5 = getelementptr inbounds %"struct.std::_Vector_base<std::thread, std::allocator<std::thread>>::_Vector_impl_data", ptr %3, i32 0, i32 1, !dbg !2369
  store ptr null, ptr %5, align 8, !dbg !2369
  %6 = getelementptr inbounds %"struct.std::_Vector_base<std::thread, std::allocator<std::thread>>::_Vector_impl_data", ptr %3, i32 0, i32 2, !dbg !2370
  store ptr null, ptr %6, align 8, !dbg !2370
  ret void, !dbg !2371
}

; Function Attrs: noinline nounwind optnone uwtable
define linkonce_odr dso_local void @_ZN9__gnu_cxx13new_allocatorISt6threadEC2Ev(ptr noundef nonnull align 1 dereferenceable(1) %0) unnamed_addr #7 comdat align 2 !dbg !2372 {
  %2 = alloca ptr, align 8
  store ptr %0, ptr %2, align 8
  call void @llvm.dbg.declare(metadata ptr %2, metadata !2373, metadata !DIExpression()), !dbg !2375
  %3 = load ptr, ptr %2, align 8
  ret void, !dbg !2376
}

; Function Attrs: mustprogress noinline optnone uwtable
define linkonce_odr dso_local void @_ZSt8_DestroyIPSt6threadS0_EvT_S2_RSaIT0_E(ptr noundef %0, ptr noundef %1, ptr noundef nonnull align 1 dereferenceable(1) %2) #8 comdat !dbg !2377 {
  %4 = alloca ptr, align 8
  %5 = alloca ptr, align 8
  %6 = alloca ptr, align 8
  store ptr %0, ptr %4, align 8
  call void @llvm.dbg.declare(metadata ptr %4, metadata !2383, metadata !DIExpression()), !dbg !2384
  store ptr %1, ptr %5, align 8
  call void @llvm.dbg.declare(metadata ptr %5, metadata !2385, metadata !DIExpression()), !dbg !2386
  store ptr %2, ptr %6, align 8
  call void @llvm.dbg.declare(metadata ptr %6, metadata !2387, metadata !DIExpression()), !dbg !2388
  %7 = load ptr, ptr %4, align 8, !dbg !2389
  %8 = load ptr, ptr %5, align 8, !dbg !2390
  call void @_ZSt8_DestroyIPSt6threadEvT_S2_(ptr noundef %7, ptr noundef %8), !dbg !2391
  ret void, !dbg !2392
}

; Function Attrs: mustprogress noinline nounwind optnone uwtable
define linkonce_odr dso_local noundef nonnull align 1 dereferenceable(1) ptr @_ZNSt12_Vector_baseISt6threadSaIS0_EE19_M_get_Tp_allocatorEv(ptr noundef nonnull align 8 dereferenceable(24) %0) #4 comdat align 2 !dbg !2393 {
  %2 = alloca ptr, align 8
  store ptr %0, ptr %2, align 8
  call void @llvm.dbg.declare(metadata ptr %2, metadata !2394, metadata !DIExpression()), !dbg !2395
  %3 = load ptr, ptr %2, align 8
  %4 = getelementptr inbounds %"struct.std::_Vector_base", ptr %3, i32 0, i32 0, !dbg !2396
  ret ptr %4, !dbg !2397
}

; Function Attrs: noinline noreturn nounwind uwtable
define linkonce_odr hidden void @__clang_call_terminate(ptr noundef %0) #9 comdat {
  %2 = call ptr @__cxa_begin_catch(ptr %0) #3
  call void @_ZSt9terminatev() #15
  unreachable
}

declare ptr @__cxa_begin_catch(ptr)

declare void @_ZSt9terminatev()

; Function Attrs: noinline nounwind optnone uwtable
define linkonce_odr dso_local void @_ZNSt12_Vector_baseISt6threadSaIS0_EED2Ev(ptr noundef nonnull align 8 dereferenceable(24) %0) unnamed_addr #7 comdat align 2 personality ptr @__gxx_personality_v0 !dbg !2398 {
  %2 = alloca ptr, align 8
  store ptr %0, ptr %2, align 8
  call void @llvm.dbg.declare(metadata ptr %2, metadata !2399, metadata !DIExpression()), !dbg !2400
  %3 = load ptr, ptr %2, align 8
  %4 = getelementptr inbounds %"struct.std::_Vector_base", ptr %3, i32 0, i32 0, !dbg !2401
  %5 = getelementptr inbounds %"struct.std::_Vector_base<std::thread, std::allocator<std::thread>>::_Vector_impl_data", ptr %4, i32 0, i32 0, !dbg !2403
  %6 = load ptr, ptr %5, align 8, !dbg !2403
  %7 = getelementptr inbounds %"struct.std::_Vector_base", ptr %3, i32 0, i32 0, !dbg !2404
  %8 = getelementptr inbounds %"struct.std::_Vector_base<std::thread, std::allocator<std::thread>>::_Vector_impl_data", ptr %7, i32 0, i32 2, !dbg !2405
  %9 = load ptr, ptr %8, align 8, !dbg !2405
  %10 = getelementptr inbounds %"struct.std::_Vector_base", ptr %3, i32 0, i32 0, !dbg !2406
  %11 = getelementptr inbounds %"struct.std::_Vector_base<std::thread, std::allocator<std::thread>>::_Vector_impl_data", ptr %10, i32 0, i32 0, !dbg !2407
  %12 = load ptr, ptr %11, align 8, !dbg !2407
  %13 = ptrtoint ptr %9 to i64, !dbg !2408
  %14 = ptrtoint ptr %12 to i64, !dbg !2408
  %15 = sub i64 %13, %14, !dbg !2408
  %16 = sdiv exact i64 %15, 8, !dbg !2408
  invoke void @_ZNSt12_Vector_baseISt6threadSaIS0_EE13_M_deallocateEPS0_m(ptr noundef nonnull align 8 dereferenceable(24) %3, ptr noundef %6, i64 noundef %16)
          to label %17 unwind label %19, !dbg !2409

17:                                               ; preds = %1
  %18 = getelementptr inbounds %"struct.std::_Vector_base", ptr %3, i32 0, i32 0, !dbg !2410
  call void @_ZNSt12_Vector_baseISt6threadSaIS0_EE12_Vector_implD2Ev(ptr noundef nonnull align 8 dereferenceable(24) %18) #3, !dbg !2410
  ret void, !dbg !2411

19:                                               ; preds = %1
  %20 = landingpad { ptr, i32 }
          catch ptr null, !dbg !2409
  %21 = extractvalue { ptr, i32 } %20, 0, !dbg !2409
  call void @__clang_call_terminate(ptr %21) #15, !dbg !2409
  unreachable, !dbg !2409
}

; Function Attrs: mustprogress noinline optnone uwtable
define linkonce_odr dso_local void @_ZSt8_DestroyIPSt6threadEvT_S2_(ptr noundef %0, ptr noundef %1) #8 comdat !dbg !2412 {
  %3 = alloca ptr, align 8
  %4 = alloca ptr, align 8
  store ptr %0, ptr %3, align 8
  call void @llvm.dbg.declare(metadata ptr %3, metadata !2416, metadata !DIExpression()), !dbg !2417
  store ptr %1, ptr %4, align 8
  call void @llvm.dbg.declare(metadata ptr %4, metadata !2418, metadata !DIExpression()), !dbg !2419
  %5 = load ptr, ptr %3, align 8, !dbg !2420
  %6 = load ptr, ptr %4, align 8, !dbg !2421
  call void @_ZNSt12_Destroy_auxILb0EE9__destroyIPSt6threadEEvT_S4_(ptr noundef %5, ptr noundef %6), !dbg !2422
  ret void, !dbg !2423
}

; Function Attrs: mustprogress noinline optnone uwtable
define linkonce_odr dso_local void @_ZNSt12_Destroy_auxILb0EE9__destroyIPSt6threadEEvT_S4_(ptr noundef %0, ptr noundef %1) #8 comdat align 2 !dbg !2424 {
  %3 = alloca ptr, align 8
  %4 = alloca ptr, align 8
  store ptr %0, ptr %3, align 8
  call void @llvm.dbg.declare(metadata ptr %3, metadata !2429, metadata !DIExpression()), !dbg !2430
  store ptr %1, ptr %4, align 8
  call void @llvm.dbg.declare(metadata ptr %4, metadata !2431, metadata !DIExpression()), !dbg !2432
  br label %5, !dbg !2433

5:                                                ; preds = %11, %2
  %6 = load ptr, ptr %3, align 8, !dbg !2434
  %7 = load ptr, ptr %4, align 8, !dbg !2437
  %8 = icmp ne ptr %6, %7, !dbg !2438
  br i1 %8, label %9, label %14, !dbg !2439

9:                                                ; preds = %5
  %10 = load ptr, ptr %3, align 8, !dbg !2440
  call void @_ZSt8_DestroyISt6threadEvPT_(ptr noundef %10), !dbg !2441
  br label %11, !dbg !2441

11:                                               ; preds = %9
  %12 = load ptr, ptr %3, align 8, !dbg !2442
  %13 = getelementptr inbounds %"class.std::thread", ptr %12, i32 1, !dbg !2442
  store ptr %13, ptr %3, align 8, !dbg !2442
  br label %5, !dbg !2443, !llvm.loop !2444

14:                                               ; preds = %5
  ret void, !dbg !2446
}

; Function Attrs: mustprogress noinline nounwind optnone uwtable
define linkonce_odr dso_local void @_ZSt8_DestroyISt6threadEvPT_(ptr noundef %0) #4 comdat !dbg !2447 {
  %2 = alloca ptr, align 8
  store ptr %0, ptr %2, align 8
  call void @llvm.dbg.declare(metadata ptr %2, metadata !2450, metadata !DIExpression()), !dbg !2451
  %3 = load ptr, ptr %2, align 8, !dbg !2452
  call void @_ZNSt6threadD2Ev(ptr noundef nonnull align 8 dereferenceable(8) %3) #3, !dbg !2453
  ret void, !dbg !2454
}

; Function Attrs: noinline nounwind optnone uwtable
define linkonce_odr dso_local void @_ZNSt6threadD2Ev(ptr noundef nonnull align 8 dereferenceable(8) %0) unnamed_addr #7 comdat align 2 !dbg !2455 {
  %2 = alloca ptr, align 8
  store ptr %0, ptr %2, align 8
  call void @llvm.dbg.declare(metadata ptr %2, metadata !2456, metadata !DIExpression()), !dbg !2457
  %3 = load ptr, ptr %2, align 8
  %4 = call noundef zeroext i1 @_ZNKSt6thread8joinableEv(ptr noundef nonnull align 8 dereferenceable(8) %3) #3, !dbg !2458
  br i1 %4, label %5, label %6, !dbg !2461

5:                                                ; preds = %1
  call void @_ZSt9terminatev() #15, !dbg !2462
  unreachable, !dbg !2462

6:                                                ; preds = %1
  ret void, !dbg !2463
}

; Function Attrs: mustprogress noinline nounwind optnone uwtable
define linkonce_odr dso_local noundef zeroext i1 @_ZNKSt6thread8joinableEv(ptr noundef nonnull align 8 dereferenceable(8) %0) #4 comdat align 2 !dbg !2464 {
  %2 = alloca ptr, align 8
  %3 = alloca %"class.std::thread::id", align 8
  %4 = alloca %"class.std::thread::id", align 8
  store ptr %0, ptr %2, align 8
  call void @llvm.dbg.declare(metadata ptr %2, metadata !2465, metadata !DIExpression()), !dbg !2466
  %5 = load ptr, ptr %2, align 8
  %6 = getelementptr inbounds %"class.std::thread", ptr %5, i32 0, i32 0, !dbg !2467
  call void @llvm.memcpy.p0.p0.i64(ptr align 8 %3, ptr align 8 %6, i64 8, i1 false), !dbg !2467
  call void @_ZNSt6thread2idC2Ev(ptr noundef nonnull align 8 dereferenceable(8) %4) #3, !dbg !2468
  %7 = getelementptr inbounds %"class.std::thread::id", ptr %3, i32 0, i32 0, !dbg !2469
  %8 = load i64, ptr %7, align 8, !dbg !2469
  %9 = getelementptr inbounds %"class.std::thread::id", ptr %4, i32 0, i32 0, !dbg !2469
  %10 = load i64, ptr %9, align 8, !dbg !2469
  %11 = call noundef zeroext i1 @_ZSteqNSt6thread2idES0_(i64 %8, i64 %10) #3, !dbg !2469
  %12 = xor i1 %11, true, !dbg !2470
  ret i1 %12, !dbg !2471
}

; Function Attrs: mustprogress noinline nounwind optnone uwtable
define linkonce_odr dso_local noundef zeroext i1 @_ZSteqNSt6thread2idES0_(i64 %0, i64 %1) #4 comdat !dbg !2472 {
  %3 = alloca %"class.std::thread::id", align 8
  %4 = alloca %"class.std::thread::id", align 8
  %5 = getelementptr inbounds %"class.std::thread::id", ptr %3, i32 0, i32 0
  store i64 %0, ptr %5, align 8
  %6 = getelementptr inbounds %"class.std::thread::id", ptr %4, i32 0, i32 0
  store i64 %1, ptr %6, align 8
  call void @llvm.dbg.declare(metadata ptr %3, metadata !2475, metadata !DIExpression()), !dbg !2476
  call void @llvm.dbg.declare(metadata ptr %4, metadata !2477, metadata !DIExpression()), !dbg !2478
  %7 = getelementptr inbounds %"class.std::thread::id", ptr %3, i32 0, i32 0, !dbg !2479
  %8 = load i64, ptr %7, align 8, !dbg !2479
  %9 = getelementptr inbounds %"class.std::thread::id", ptr %4, i32 0, i32 0, !dbg !2480
  %10 = load i64, ptr %9, align 8, !dbg !2480
  %11 = icmp eq i64 %8, %10, !dbg !2481
  ret i1 %11, !dbg !2482
}

; Function Attrs: nocallback nofree nounwind willreturn memory(argmem: readwrite)
declare void @llvm.memcpy.p0.p0.i64(ptr noalias nocapture writeonly, ptr noalias nocapture readonly, i64, i1 immarg) #10

; Function Attrs: noinline nounwind optnone uwtable
define linkonce_odr dso_local void @_ZNSt6thread2idC2Ev(ptr noundef nonnull align 8 dereferenceable(8) %0) unnamed_addr #7 comdat align 2 !dbg !2483 {
  %2 = alloca ptr, align 8
  store ptr %0, ptr %2, align 8
  call void @llvm.dbg.declare(metadata ptr %2, metadata !2484, metadata !DIExpression()), !dbg !2486
  %3 = load ptr, ptr %2, align 8
  %4 = getelementptr inbounds %"class.std::thread::id", ptr %3, i32 0, i32 0, !dbg !2487
  store i64 0, ptr %4, align 8, !dbg !2487
  ret void, !dbg !2488
}

; Function Attrs: mustprogress noinline optnone uwtable
define linkonce_odr dso_local void @_ZNSt12_Vector_baseISt6threadSaIS0_EE13_M_deallocateEPS0_m(ptr noundef nonnull align 8 dereferenceable(24) %0, ptr noundef %1, i64 noundef %2) #8 comdat align 2 !dbg !2489 {
  %4 = alloca ptr, align 8
  %5 = alloca ptr, align 8
  %6 = alloca i64, align 8
  store ptr %0, ptr %4, align 8
  call void @llvm.dbg.declare(metadata ptr %4, metadata !2490, metadata !DIExpression()), !dbg !2491
  store ptr %1, ptr %5, align 8
  call void @llvm.dbg.declare(metadata ptr %5, metadata !2492, metadata !DIExpression()), !dbg !2493
  store i64 %2, ptr %6, align 8
  call void @llvm.dbg.declare(metadata ptr %6, metadata !2494, metadata !DIExpression()), !dbg !2495
  %7 = load ptr, ptr %4, align 8
  %8 = load ptr, ptr %5, align 8, !dbg !2496
  %9 = icmp ne ptr %8, null, !dbg !2496
  br i1 %9, label %10, label %14, !dbg !2498

10:                                               ; preds = %3
  %11 = getelementptr inbounds %"struct.std::_Vector_base", ptr %7, i32 0, i32 0, !dbg !2499
  %12 = load ptr, ptr %5, align 8, !dbg !2500
  %13 = load i64, ptr %6, align 8, !dbg !2501
  call void @_ZNSt16allocator_traitsISaISt6threadEE10deallocateERS1_PS0_m(ptr noundef nonnull align 1 dereferenceable(1) %11, ptr noundef %12, i64 noundef %13), !dbg !2502
  br label %14, !dbg !2502

14:                                               ; preds = %10, %3
  ret void, !dbg !2503
}

; Function Attrs: noinline nounwind optnone uwtable
define linkonce_odr dso_local void @_ZNSt12_Vector_baseISt6threadSaIS0_EE12_Vector_implD2Ev(ptr noundef nonnull align 8 dereferenceable(24) %0) unnamed_addr #7 comdat align 2 !dbg !2504 {
  %2 = alloca ptr, align 8
  store ptr %0, ptr %2, align 8
  call void @llvm.dbg.declare(metadata ptr %2, metadata !2506, metadata !DIExpression()), !dbg !2507
  %3 = load ptr, ptr %2, align 8
  call void @_ZNSaISt6threadED2Ev(ptr noundef nonnull align 1 dereferenceable(1) %3) #3, !dbg !2508
  ret void, !dbg !2510
}

; Function Attrs: mustprogress noinline optnone uwtable
define linkonce_odr dso_local void @_ZNSt16allocator_traitsISaISt6threadEE10deallocateERS1_PS0_m(ptr noundef nonnull align 1 dereferenceable(1) %0, ptr noundef %1, i64 noundef %2) #8 comdat align 2 !dbg !2511 {
  %4 = alloca ptr, align 8
  %5 = alloca ptr, align 8
  %6 = alloca i64, align 8
  store ptr %0, ptr %4, align 8
  call void @llvm.dbg.declare(metadata ptr %4, metadata !2512, metadata !DIExpression()), !dbg !2513
  store ptr %1, ptr %5, align 8
  call void @llvm.dbg.declare(metadata ptr %5, metadata !2514, metadata !DIExpression()), !dbg !2515
  store i64 %2, ptr %6, align 8
  call void @llvm.dbg.declare(metadata ptr %6, metadata !2516, metadata !DIExpression()), !dbg !2517
  %7 = load ptr, ptr %4, align 8, !dbg !2518
  %8 = load ptr, ptr %5, align 8, !dbg !2519
  %9 = load i64, ptr %6, align 8, !dbg !2520
  call void @_ZN9__gnu_cxx13new_allocatorISt6threadE10deallocateEPS1_m(ptr noundef nonnull align 1 dereferenceable(1) %7, ptr noundef %8, i64 noundef %9), !dbg !2521
  ret void, !dbg !2522
}

; Function Attrs: mustprogress noinline nounwind optnone uwtable
define linkonce_odr dso_local void @_ZN9__gnu_cxx13new_allocatorISt6threadE10deallocateEPS1_m(ptr noundef nonnull align 1 dereferenceable(1) %0, ptr noundef %1, i64 noundef %2) #4 comdat align 2 !dbg !2523 {
  %4 = alloca ptr, align 8
  %5 = alloca ptr, align 8
  %6 = alloca i64, align 8
  store ptr %0, ptr %4, align 8
  call void @llvm.dbg.declare(metadata ptr %4, metadata !2524, metadata !DIExpression()), !dbg !2525
  store ptr %1, ptr %5, align 8
  call void @llvm.dbg.declare(metadata ptr %5, metadata !2526, metadata !DIExpression()), !dbg !2527
  store i64 %2, ptr %6, align 8
  call void @llvm.dbg.declare(metadata ptr %6, metadata !2528, metadata !DIExpression()), !dbg !2529
  %7 = load ptr, ptr %4, align 8
  %8 = load ptr, ptr %5, align 8, !dbg !2530
  call void @_ZdlPv(ptr noundef %8) #3, !dbg !2531
  ret void, !dbg !2532
}

; Function Attrs: nobuiltin nounwind
declare void @_ZdlPv(ptr noundef) #11

; Function Attrs: noinline nounwind optnone uwtable
define linkonce_odr dso_local void @_ZNSaISt6threadED2Ev(ptr noundef nonnull align 1 dereferenceable(1) %0) unnamed_addr #7 comdat align 2 !dbg !2533 {
  %2 = alloca ptr, align 8
  store ptr %0, ptr %2, align 8
  call void @llvm.dbg.declare(metadata ptr %2, metadata !2534, metadata !DIExpression()), !dbg !2535
  %3 = load ptr, ptr %2, align 8
  call void @_ZN9__gnu_cxx13new_allocatorISt6threadED2Ev(ptr noundef nonnull align 1 dereferenceable(1) %3) #3, !dbg !2536
  ret void, !dbg !2538
}

; Function Attrs: noinline nounwind optnone uwtable
define linkonce_odr dso_local void @_ZN9__gnu_cxx13new_allocatorISt6threadED2Ev(ptr noundef nonnull align 1 dereferenceable(1) %0) unnamed_addr #7 comdat align 2 !dbg !2539 {
  %2 = alloca ptr, align 8
  store ptr %0, ptr %2, align 8
  call void @llvm.dbg.declare(metadata ptr %2, metadata !2540, metadata !DIExpression()), !dbg !2541
  %3 = load ptr, ptr %2, align 8
  ret void, !dbg !2542
}

; Function Attrs: mustprogress noinline optnone uwtable
define linkonce_odr dso_local void @_ZNSt16allocator_traitsISaISt6threadEE9constructIS0_JRFvvEEEEvRS1_PT_DpOT0_(ptr noundef nonnull align 1 dereferenceable(1) %0, ptr noundef %1, ptr noundef nonnull %2) #8 comdat align 2 !dbg !2543 {
  %4 = alloca ptr, align 8
  %5 = alloca ptr, align 8
  %6 = alloca ptr, align 8
  store ptr %0, ptr %4, align 8
  call void @llvm.dbg.declare(metadata ptr %4, metadata !2549, metadata !DIExpression()), !dbg !2550
  store ptr %1, ptr %5, align 8
  call void @llvm.dbg.declare(metadata ptr %5, metadata !2551, metadata !DIExpression()), !dbg !2552
  store ptr %2, ptr %6, align 8
  call void @llvm.dbg.declare(metadata ptr %6, metadata !2553, metadata !DIExpression()), !dbg !2554
  %7 = load ptr, ptr %4, align 8, !dbg !2555
  %8 = load ptr, ptr %5, align 8, !dbg !2556
  %9 = load ptr, ptr %6, align 8, !dbg !2557
  call void @_ZN9__gnu_cxx13new_allocatorISt6threadE9constructIS1_JRFvvEEEEvPT_DpOT0_(ptr noundef nonnull align 1 dereferenceable(1) %7, ptr noundef %8, ptr noundef nonnull %9), !dbg !2558
  ret void, !dbg !2559
}

; Function Attrs: mustprogress noinline optnone uwtable
define linkonce_odr dso_local void @_ZNSt6vectorISt6threadSaIS0_EE17_M_realloc_insertIJRFvvEEEEvN9__gnu_cxx17__normal_iteratorIPS0_S2_EEDpOT_(ptr noundef nonnull align 8 dereferenceable(24) %0, ptr %1, ptr noundef nonnull %2) #8 comdat align 2 personality ptr @__gxx_personality_v0 !dbg !2560 {
  %4 = alloca %"class.__gnu_cxx::__normal_iterator", align 8
  %5 = alloca ptr, align 8
  %6 = alloca ptr, align 8
  %7 = alloca i64, align 8
  %8 = alloca ptr, align 8
  %9 = alloca ptr, align 8
  %10 = alloca i64, align 8
  %11 = alloca %"class.__gnu_cxx::__normal_iterator", align 8
  %12 = alloca ptr, align 8
  %13 = alloca ptr, align 8
  %14 = alloca ptr, align 8
  %15 = alloca i32, align 4
  %16 = getelementptr inbounds %"class.__gnu_cxx::__normal_iterator", ptr %4, i32 0, i32 0
  store ptr %1, ptr %16, align 8
  store ptr %0, ptr %5, align 8
  call void @llvm.dbg.declare(metadata ptr %5, metadata !2564, metadata !DIExpression()), !dbg !2565
  call void @llvm.dbg.declare(metadata ptr %4, metadata !2566, metadata !DIExpression()), !dbg !2567
  store ptr %2, ptr %6, align 8
  call void @llvm.dbg.declare(metadata ptr %6, metadata !2568, metadata !DIExpression()), !dbg !2569
  %17 = load ptr, ptr %5, align 8
  call void @llvm.dbg.declare(metadata ptr %7, metadata !2570, metadata !DIExpression()), !dbg !2572
  %18 = call noundef i64 @_ZNKSt6vectorISt6threadSaIS0_EE12_M_check_lenEmPKc(ptr noundef nonnull align 8 dereferenceable(24) %17, i64 noundef 1, ptr noundef @.str.1), !dbg !2573
  store i64 %18, ptr %7, align 8, !dbg !2572
  call void @llvm.dbg.declare(metadata ptr %8, metadata !2574, metadata !DIExpression()), !dbg !2575
  %19 = getelementptr inbounds %"struct.std::_Vector_base", ptr %17, i32 0, i32 0, !dbg !2576
  %20 = getelementptr inbounds %"struct.std::_Vector_base<std::thread, std::allocator<std::thread>>::_Vector_impl_data", ptr %19, i32 0, i32 0, !dbg !2577
  %21 = load ptr, ptr %20, align 8, !dbg !2577
  store ptr %21, ptr %8, align 8, !dbg !2575
  call void @llvm.dbg.declare(metadata ptr %9, metadata !2578, metadata !DIExpression()), !dbg !2579
  %22 = getelementptr inbounds %"struct.std::_Vector_base", ptr %17, i32 0, i32 0, !dbg !2580
  %23 = getelementptr inbounds %"struct.std::_Vector_base<std::thread, std::allocator<std::thread>>::_Vector_impl_data", ptr %22, i32 0, i32 1, !dbg !2581
  %24 = load ptr, ptr %23, align 8, !dbg !2581
  store ptr %24, ptr %9, align 8, !dbg !2579
  call void @llvm.dbg.declare(metadata ptr %10, metadata !2582, metadata !DIExpression()), !dbg !2583
  %25 = call ptr @_ZNSt6vectorISt6threadSaIS0_EE5beginEv(ptr noundef nonnull align 8 dereferenceable(24) %17) #3, !dbg !2584
  %26 = getelementptr inbounds %"class.__gnu_cxx::__normal_iterator", ptr %11, i32 0, i32 0, !dbg !2584
  store ptr %25, ptr %26, align 8, !dbg !2584
  %27 = call noundef i64 @_ZN9__gnu_cxxmiIPSt6threadSt6vectorIS1_SaIS1_EEEENS_17__normal_iteratorIT_T0_E15difference_typeERKS9_SC_(ptr noundef nonnull align 8 dereferenceable(8) %4, ptr noundef nonnull align 8 dereferenceable(8) %11) #3, !dbg !2585
  store i64 %27, ptr %10, align 8, !dbg !2583
  call void @llvm.dbg.declare(metadata ptr %12, metadata !2586, metadata !DIExpression()), !dbg !2587
  %28 = load i64, ptr %7, align 8, !dbg !2588
  %29 = call noundef ptr @_ZNSt12_Vector_baseISt6threadSaIS0_EE11_M_allocateEm(ptr noundef nonnull align 8 dereferenceable(24) %17, i64 noundef %28), !dbg !2589
  store ptr %29, ptr %12, align 8, !dbg !2587
  call void @llvm.dbg.declare(metadata ptr %13, metadata !2590, metadata !DIExpression()), !dbg !2591
  %30 = load ptr, ptr %12, align 8, !dbg !2592
  store ptr %30, ptr %13, align 8, !dbg !2591
  %31 = getelementptr inbounds %"struct.std::_Vector_base", ptr %17, i32 0, i32 0, !dbg !2593
  %32 = load ptr, ptr %12, align 8, !dbg !2595
  %33 = load i64, ptr %10, align 8, !dbg !2596
  %34 = getelementptr inbounds %"class.std::thread", ptr %32, i64 %33, !dbg !2597
  %35 = load ptr, ptr %6, align 8, !dbg !2598
  invoke void @_ZNSt16allocator_traitsISaISt6threadEE9constructIS0_JRFvvEEEEvRS1_PT_DpOT0_(ptr noundef nonnull align 1 dereferenceable(1) %31, ptr noundef %34, ptr noundef nonnull %35)
          to label %36 unwind label %51, !dbg !2599

36:                                               ; preds = %3
  store ptr null, ptr %13, align 8, !dbg !2600
  %37 = load ptr, ptr %8, align 8, !dbg !2601
  %38 = call noundef nonnull align 8 dereferenceable(8) ptr @_ZNK9__gnu_cxx17__normal_iteratorIPSt6threadSt6vectorIS1_SaIS1_EEE4baseEv(ptr noundef nonnull align 8 dereferenceable(8) %4) #3, !dbg !2604
  %39 = load ptr, ptr %38, align 8, !dbg !2604
  %40 = load ptr, ptr %12, align 8, !dbg !2605
  %41 = call noundef nonnull align 1 dereferenceable(1) ptr @_ZNSt12_Vector_baseISt6threadSaIS0_EE19_M_get_Tp_allocatorEv(ptr noundef nonnull align 8 dereferenceable(24) %17) #3, !dbg !2606
  %42 = call noundef ptr @_ZNSt6vectorISt6threadSaIS0_EE11_S_relocateEPS0_S3_S3_RS1_(ptr noundef %37, ptr noundef %39, ptr noundef %40, ptr noundef nonnull align 1 dereferenceable(1) %41) #3, !dbg !2607
  store ptr %42, ptr %13, align 8, !dbg !2608
  %43 = load ptr, ptr %13, align 8, !dbg !2609
  %44 = getelementptr inbounds %"class.std::thread", ptr %43, i32 1, !dbg !2609
  store ptr %44, ptr %13, align 8, !dbg !2609
  %45 = call noundef nonnull align 8 dereferenceable(8) ptr @_ZNK9__gnu_cxx17__normal_iteratorIPSt6threadSt6vectorIS1_SaIS1_EEE4baseEv(ptr noundef nonnull align 8 dereferenceable(8) %4) #3, !dbg !2610
  %46 = load ptr, ptr %45, align 8, !dbg !2610
  %47 = load ptr, ptr %9, align 8, !dbg !2611
  %48 = load ptr, ptr %13, align 8, !dbg !2612
  %49 = call noundef nonnull align 1 dereferenceable(1) ptr @_ZNSt12_Vector_baseISt6threadSaIS0_EE19_M_get_Tp_allocatorEv(ptr noundef nonnull align 8 dereferenceable(24) %17) #3, !dbg !2613
  %50 = call noundef ptr @_ZNSt6vectorISt6threadSaIS0_EE11_S_relocateEPS0_S3_S3_RS1_(ptr noundef %46, ptr noundef %47, ptr noundef %48, ptr noundef nonnull align 1 dereferenceable(1) %49) #3, !dbg !2614
  store ptr %50, ptr %13, align 8, !dbg !2615
  br label %79, !dbg !2616

51:                                               ; preds = %3
  %52 = landingpad { ptr, i32 }
          catch ptr null, !dbg !2617
  %53 = extractvalue { ptr, i32 } %52, 0, !dbg !2617
  store ptr %53, ptr %14, align 8, !dbg !2617
  %54 = extractvalue { ptr, i32 } %52, 1, !dbg !2617
  store i32 %54, ptr %15, align 4, !dbg !2617
  br label %55, !dbg !2617

55:                                               ; preds = %51
  %56 = load ptr, ptr %14, align 8, !dbg !2616
  %57 = call ptr @__cxa_begin_catch(ptr %56) #3, !dbg !2616
  %58 = load ptr, ptr %13, align 8, !dbg !2618
  %59 = icmp ne ptr %58, null, !dbg !2618
  br i1 %59, label %65, label %60, !dbg !2621

60:                                               ; preds = %55
  %61 = getelementptr inbounds %"struct.std::_Vector_base", ptr %17, i32 0, i32 0, !dbg !2622
  %62 = load ptr, ptr %12, align 8, !dbg !2623
  %63 = load i64, ptr %10, align 8, !dbg !2624
  %64 = getelementptr inbounds %"class.std::thread", ptr %62, i64 %63, !dbg !2625
  call void @_ZNSt16allocator_traitsISaISt6threadEE7destroyIS0_EEvRS1_PT_(ptr noundef nonnull align 1 dereferenceable(1) %61, ptr noundef %64) #3, !dbg !2626
  br label %74, !dbg !2626

65:                                               ; preds = %55
  %66 = load ptr, ptr %12, align 8, !dbg !2627
  %67 = load ptr, ptr %13, align 8, !dbg !2628
  %68 = call noundef nonnull align 1 dereferenceable(1) ptr @_ZNSt12_Vector_baseISt6threadSaIS0_EE19_M_get_Tp_allocatorEv(ptr noundef nonnull align 8 dereferenceable(24) %17) #3, !dbg !2629
  invoke void @_ZSt8_DestroyIPSt6threadS0_EvT_S2_RSaIT0_E(ptr noundef %66, ptr noundef %67, ptr noundef nonnull align 1 dereferenceable(1) %68)
          to label %69 unwind label %70, !dbg !2630

69:                                               ; preds = %65
  br label %74

70:                                               ; preds = %77, %74, %65
  %71 = landingpad { ptr, i32 }
          cleanup, !dbg !2631
  %72 = extractvalue { ptr, i32 } %71, 0, !dbg !2631
  store ptr %72, ptr %14, align 8, !dbg !2631
  %73 = extractvalue { ptr, i32 } %71, 1, !dbg !2631
  store i32 %73, ptr %15, align 4, !dbg !2631
  invoke void @__cxa_end_catch()
          to label %78 unwind label %105, !dbg !2632

74:                                               ; preds = %69, %60
  %75 = load ptr, ptr %12, align 8, !dbg !2633
  %76 = load i64, ptr %7, align 8, !dbg !2634
  invoke void @_ZNSt12_Vector_baseISt6threadSaIS0_EE13_M_deallocateEPS0_m(ptr noundef nonnull align 8 dereferenceable(24) %17, ptr noundef %75, i64 noundef %76)
          to label %77 unwind label %70, !dbg !2635

77:                                               ; preds = %74
  invoke void @__cxa_rethrow() #16
          to label %108 unwind label %70, !dbg !2636

78:                                               ; preds = %70
  br label %100, !dbg !2632

79:                                               ; preds = %36
  %80 = load ptr, ptr %8, align 8, !dbg !2637
  %81 = getelementptr inbounds %"struct.std::_Vector_base", ptr %17, i32 0, i32 0, !dbg !2638
  %82 = getelementptr inbounds %"struct.std::_Vector_base<std::thread, std::allocator<std::thread>>::_Vector_impl_data", ptr %81, i32 0, i32 2, !dbg !2639
  %83 = load ptr, ptr %82, align 8, !dbg !2639
  %84 = load ptr, ptr %8, align 8, !dbg !2640
  %85 = ptrtoint ptr %83 to i64, !dbg !2641
  %86 = ptrtoint ptr %84 to i64, !dbg !2641
  %87 = sub i64 %85, %86, !dbg !2641
  %88 = sdiv exact i64 %87, 8, !dbg !2641
  call void @_ZNSt12_Vector_baseISt6threadSaIS0_EE13_M_deallocateEPS0_m(ptr noundef nonnull align 8 dereferenceable(24) %17, ptr noundef %80, i64 noundef %88), !dbg !2642
  %89 = load ptr, ptr %12, align 8, !dbg !2643
  %90 = getelementptr inbounds %"struct.std::_Vector_base", ptr %17, i32 0, i32 0, !dbg !2644
  %91 = getelementptr inbounds %"struct.std::_Vector_base<std::thread, std::allocator<std::thread>>::_Vector_impl_data", ptr %90, i32 0, i32 0, !dbg !2645
  store ptr %89, ptr %91, align 8, !dbg !2646
  %92 = load ptr, ptr %13, align 8, !dbg !2647
  %93 = getelementptr inbounds %"struct.std::_Vector_base", ptr %17, i32 0, i32 0, !dbg !2648
  %94 = getelementptr inbounds %"struct.std::_Vector_base<std::thread, std::allocator<std::thread>>::_Vector_impl_data", ptr %93, i32 0, i32 1, !dbg !2649
  store ptr %92, ptr %94, align 8, !dbg !2650
  %95 = load ptr, ptr %12, align 8, !dbg !2651
  %96 = load i64, ptr %7, align 8, !dbg !2652
  %97 = getelementptr inbounds %"class.std::thread", ptr %95, i64 %96, !dbg !2653
  %98 = getelementptr inbounds %"struct.std::_Vector_base", ptr %17, i32 0, i32 0, !dbg !2654
  %99 = getelementptr inbounds %"struct.std::_Vector_base<std::thread, std::allocator<std::thread>>::_Vector_impl_data", ptr %98, i32 0, i32 2, !dbg !2655
  store ptr %97, ptr %99, align 8, !dbg !2656
  ret void, !dbg !2657

100:                                              ; preds = %78
  %101 = load ptr, ptr %14, align 8, !dbg !2632
  %102 = load i32, ptr %15, align 4, !dbg !2632
  %103 = insertvalue { ptr, i32 } poison, ptr %101, 0, !dbg !2632
  %104 = insertvalue { ptr, i32 } %103, i32 %102, 1, !dbg !2632
  resume { ptr, i32 } %104, !dbg !2632

105:                                              ; preds = %70
  %106 = landingpad { ptr, i32 }
          catch ptr null, !dbg !2632
  %107 = extractvalue { ptr, i32 } %106, 0, !dbg !2632
  call void @__clang_call_terminate(ptr %107) #15, !dbg !2632
  unreachable, !dbg !2632

108:                                              ; preds = %77
  unreachable
}

; Function Attrs: mustprogress noinline optnone uwtable
define linkonce_odr dso_local void @_ZN9__gnu_cxx13new_allocatorISt6threadE9constructIS1_JRFvvEEEEvPT_DpOT0_(ptr noundef nonnull align 1 dereferenceable(1) %0, ptr noundef %1, ptr noundef nonnull %2) #8 comdat align 2 !dbg !2658 {
  %4 = alloca ptr, align 8
  %5 = alloca ptr, align 8
  %6 = alloca ptr, align 8
  store ptr %0, ptr %4, align 8
  call void @llvm.dbg.declare(metadata ptr %4, metadata !2662, metadata !DIExpression()), !dbg !2663
  store ptr %1, ptr %5, align 8
  call void @llvm.dbg.declare(metadata ptr %5, metadata !2664, metadata !DIExpression()), !dbg !2665
  store ptr %2, ptr %6, align 8
  call void @llvm.dbg.declare(metadata ptr %6, metadata !2666, metadata !DIExpression()), !dbg !2667
  %7 = load ptr, ptr %4, align 8
  %8 = load ptr, ptr %5, align 8, !dbg !2668
  %9 = load ptr, ptr %6, align 8, !dbg !2669
  call void @_ZNSt6threadC2IRFvvEJEvEEOT_DpOT0_(ptr noundef nonnull align 8 dereferenceable(8) %8, ptr noundef nonnull %9), !dbg !2670
  ret void, !dbg !2671
}

; Function Attrs: noinline optnone uwtable
define linkonce_odr dso_local void @_ZNSt6threadC2IRFvvEJEvEEOT_DpOT0_(ptr noundef nonnull align 8 dereferenceable(8) %0, ptr noundef nonnull %1) unnamed_addr #12 comdat align 2 personality ptr @__gxx_personality_v0 !dbg !2672 {
  %3 = alloca ptr, align 8
  %4 = alloca ptr, align 8
  %5 = alloca ptr, align 8
  %6 = alloca %"class.std::unique_ptr", align 8
  %7 = alloca %"struct.std::thread::_Invoker", align 8
  %8 = alloca ptr, align 8
  %9 = alloca i32, align 4
  store ptr %0, ptr %3, align 8
  call void @llvm.dbg.declare(metadata ptr %3, metadata !2679, metadata !DIExpression()), !dbg !2680
  store ptr %1, ptr %4, align 8
  call void @llvm.dbg.declare(metadata ptr %4, metadata !2681, metadata !DIExpression()), !dbg !2682
  %10 = load ptr, ptr %3, align 8
  %11 = getelementptr inbounds %"class.std::thread", ptr %10, i32 0, i32 0, !dbg !2683
  call void @_ZNSt6thread2idC2Ev(ptr noundef nonnull align 8 dereferenceable(8) %11) #3, !dbg !2683
  call void @llvm.dbg.declare(metadata ptr %5, metadata !2684, metadata !DIExpression()), !dbg !2686
  store ptr @pthread_create, ptr %5, align 8, !dbg !2686
  %12 = load ptr, ptr %4, align 8, !dbg !2687
  call void @_ZNSt6thread14__make_invokerIRFvvEJEEENS_8_InvokerISt5tupleIJNSt5decayIT_E4typeEDpNS5_IT0_E4typeEEEEEOS6_DpOS9_(ptr sret(%"struct.std::thread::_Invoker") align 8 %7, ptr noundef nonnull %12), !dbg !2688
  call void @_ZNSt6thread13_S_make_stateINS_8_InvokerISt5tupleIJPFvvEEEEEEESt10unique_ptrINS_6_StateESt14default_deleteIS8_EEOT_(ptr sret(%"class.std::unique_ptr") align 8 %6, ptr noundef nonnull align 8 dereferenceable(8) %7), !dbg !2689
  %13 = load ptr, ptr %5, align 8, !dbg !2690
  invoke void @_ZNSt6thread15_M_start_threadESt10unique_ptrINS_6_StateESt14default_deleteIS1_EEPFvvE(ptr noundef nonnull align 8 dereferenceable(8) %10, ptr noundef %6, ptr noundef %13)
          to label %14 unwind label %15, !dbg !2691

14:                                               ; preds = %2
  call void @_ZNSt10unique_ptrINSt6thread6_StateESt14default_deleteIS1_EED2Ev(ptr noundef nonnull align 8 dereferenceable(8) %6) #3, !dbg !2691
  ret void, !dbg !2692

15:                                               ; preds = %2
  %16 = landingpad { ptr, i32 }
          cleanup, !dbg !2693
  %17 = extractvalue { ptr, i32 } %16, 0, !dbg !2693
  store ptr %17, ptr %8, align 8, !dbg !2693
  %18 = extractvalue { ptr, i32 } %16, 1, !dbg !2693
  store i32 %18, ptr %9, align 4, !dbg !2693
  call void @_ZNSt10unique_ptrINSt6thread6_StateESt14default_deleteIS1_EED2Ev(ptr noundef nonnull align 8 dereferenceable(8) %6) #3, !dbg !2691
  br label %19, !dbg !2691

19:                                               ; preds = %15
  %20 = load ptr, ptr %8, align 8, !dbg !2691
  %21 = load i32, ptr %9, align 4, !dbg !2691
  %22 = insertvalue { ptr, i32 } poison, ptr %20, 0, !dbg !2691
  %23 = insertvalue { ptr, i32 } %22, i32 %21, 1, !dbg !2691
  resume { ptr, i32 } %23, !dbg !2691
}

; Function Attrs: nounwind
declare i32 @pthread_create(ptr noundef, ptr noundef, ptr noundef, ptr noundef) #2

declare void @_ZNSt6thread15_M_start_threadESt10unique_ptrINS_6_StateESt14default_deleteIS1_EEPFvvE(ptr noundef nonnull align 8 dereferenceable(8), ptr noundef, ptr noundef) #1

; Function Attrs: mustprogress noinline optnone uwtable
define linkonce_odr dso_local void @_ZNSt6thread13_S_make_stateINS_8_InvokerISt5tupleIJPFvvEEEEEEESt10unique_ptrINS_6_StateESt14default_deleteIS8_EEOT_(ptr noalias sret(%"class.std::unique_ptr") align 8 %0, ptr noundef nonnull align 8 dereferenceable(8) %1) #8 comdat align 2 personality ptr @__gxx_personality_v0 !dbg !2694 {
  %3 = alloca ptr, align 8
  %4 = alloca ptr, align 8
  %5 = alloca ptr, align 8
  %6 = alloca i32, align 4
  store ptr %0, ptr %3, align 8
  store ptr %1, ptr %4, align 8
  call void @llvm.dbg.declare(metadata ptr %4, metadata !2701, metadata !DIExpression()), !dbg !2702
  %7 = call noalias noundef nonnull ptr @_Znwm(i64 noundef 16) #17, !dbg !2703, !heapallocsite !2704
  %8 = load ptr, ptr %4, align 8, !dbg !2716
  invoke void @_ZNSt6thread11_State_implINS_8_InvokerISt5tupleIJPFvvEEEEEEC2EOS6_(ptr noundef nonnull align 8 dereferenceable(16) %7, ptr noundef nonnull align 8 dereferenceable(8) %8)
          to label %9 unwind label %10, !dbg !2717

9:                                                ; preds = %2
  call void @_ZNSt10unique_ptrINSt6thread6_StateESt14default_deleteIS1_EEC2IS3_vEEPS1_(ptr noundef nonnull align 8 dereferenceable(8) %0, ptr noundef %7) #3, !dbg !2718
  ret void, !dbg !2719

10:                                               ; preds = %2
  %11 = landingpad { ptr, i32 }
          cleanup, !dbg !2720
  %12 = extractvalue { ptr, i32 } %11, 0, !dbg !2720
  store ptr %12, ptr %5, align 8, !dbg !2720
  %13 = extractvalue { ptr, i32 } %11, 1, !dbg !2720
  store i32 %13, ptr %6, align 4, !dbg !2720
  call void @_ZdlPv(ptr noundef %7) #18, !dbg !2703
  br label %14, !dbg !2703

14:                                               ; preds = %10
  %15 = load ptr, ptr %5, align 8, !dbg !2703
  %16 = load i32, ptr %6, align 4, !dbg !2703
  %17 = insertvalue { ptr, i32 } poison, ptr %15, 0, !dbg !2703
  %18 = insertvalue { ptr, i32 } %17, i32 %16, 1, !dbg !2703
  resume { ptr, i32 } %18, !dbg !2703
}

; Function Attrs: mustprogress noinline optnone uwtable
define linkonce_odr dso_local void @_ZNSt6thread14__make_invokerIRFvvEJEEENS_8_InvokerISt5tupleIJNSt5decayIT_E4typeEDpNS5_IT0_E4typeEEEEEOS6_DpOS9_(ptr noalias sret(%"struct.std::thread::_Invoker") align 8 %0, ptr noundef nonnull %1) #8 comdat align 2 !dbg !2721 {
  %3 = alloca ptr, align 8
  %4 = alloca ptr, align 8
  %5 = alloca ptr, align 8
  store ptr %0, ptr %3, align 8
  store ptr %1, ptr %4, align 8
  call void @llvm.dbg.declare(metadata ptr %4, metadata !2726, metadata !DIExpression()), !dbg !2727
  %6 = getelementptr inbounds %"struct.std::thread::_Invoker", ptr %0, i32 0, i32 0, !dbg !2728
  %7 = load ptr, ptr %4, align 8, !dbg !2729
  store ptr %7, ptr %5, align 8, !dbg !2730
  call void @_ZNSt5tupleIJPFvvEEEC2IvLb1EEERKS1_(ptr noundef nonnull align 8 dereferenceable(8) %6, ptr noundef nonnull align 8 dereferenceable(8) %5), !dbg !2731
  ret void, !dbg !2732
}

; Function Attrs: noinline nounwind optnone uwtable
define linkonce_odr dso_local void @_ZNSt10unique_ptrINSt6thread6_StateESt14default_deleteIS1_EED2Ev(ptr noundef nonnull align 8 dereferenceable(8) %0) unnamed_addr #7 comdat align 2 personality ptr @__gxx_personality_v0 !dbg !2733 {
  %2 = alloca ptr, align 8
  %3 = alloca ptr, align 8
  store ptr %0, ptr %2, align 8
  call void @llvm.dbg.declare(metadata ptr %2, metadata !2734, metadata !DIExpression()), !dbg !2736
  %4 = load ptr, ptr %2, align 8
  call void @llvm.dbg.declare(metadata ptr %3, metadata !2737, metadata !DIExpression()), !dbg !2739
  %5 = getelementptr inbounds %"class.std::unique_ptr", ptr %4, i32 0, i32 0, !dbg !2740
  %6 = call noundef nonnull align 8 dereferenceable(8) ptr @_ZNSt15__uniq_ptr_implINSt6thread6_StateESt14default_deleteIS1_EE6_M_ptrEv(ptr noundef nonnull align 8 dereferenceable(8) %5), !dbg !2741
  store ptr %6, ptr %3, align 8, !dbg !2739
  %7 = load ptr, ptr %3, align 8, !dbg !2742
  %8 = load ptr, ptr %7, align 8, !dbg !2742
  %9 = icmp ne ptr %8, null, !dbg !2744
  br i1 %9, label %10, label %15, !dbg !2745

10:                                               ; preds = %1
  %11 = call noundef nonnull align 1 dereferenceable(1) ptr @_ZNSt10unique_ptrINSt6thread6_StateESt14default_deleteIS1_EE11get_deleterEv(ptr noundef nonnull align 8 dereferenceable(8) %4) #3, !dbg !2746
  %12 = load ptr, ptr %3, align 8, !dbg !2747
  %13 = load ptr, ptr %12, align 8, !dbg !2748
  invoke void @_ZNKSt14default_deleteINSt6thread6_StateEEclEPS1_(ptr noundef nonnull align 1 dereferenceable(1) %11, ptr noundef %13)
          to label %14 unwind label %17, !dbg !2746

14:                                               ; preds = %10
  br label %15, !dbg !2746

15:                                               ; preds = %14, %1
  %16 = load ptr, ptr %3, align 8, !dbg !2749
  store ptr null, ptr %16, align 8, !dbg !2750
  ret void, !dbg !2751

17:                                               ; preds = %10
  %18 = landingpad { ptr, i32 }
          catch ptr null, !dbg !2746
  %19 = extractvalue { ptr, i32 } %18, 0, !dbg !2746
  call void @__clang_call_terminate(ptr %19) #15, !dbg !2746
  unreachable, !dbg !2746
}

; Function Attrs: nobuiltin allocsize(0)
declare noundef nonnull ptr @_Znwm(i64 noundef) #13

; Function Attrs: noinline nounwind optnone uwtable
define linkonce_odr dso_local void @_ZNSt6thread11_State_implINS_8_InvokerISt5tupleIJPFvvEEEEEEC2EOS6_(ptr noundef nonnull align 8 dereferenceable(16) %0, ptr noundef nonnull align 8 dereferenceable(8) %1) unnamed_addr #7 comdat align 2 !dbg !2752 {
  %3 = alloca ptr, align 8
  %4 = alloca ptr, align 8
  store ptr %0, ptr %3, align 8
  call void @llvm.dbg.declare(metadata ptr %3, metadata !2753, metadata !DIExpression()), !dbg !2755
  store ptr %1, ptr %4, align 8
  call void @llvm.dbg.declare(metadata ptr %4, metadata !2756, metadata !DIExpression()), !dbg !2757
  %5 = load ptr, ptr %3, align 8
  call void @_ZNSt6thread6_StateC2Ev(ptr noundef nonnull align 8 dereferenceable(8) %5) #3, !dbg !2758
  store ptr getelementptr inbounds ({ [5 x ptr] }, ptr @_ZTVNSt6thread11_State_implINS_8_InvokerISt5tupleIJPFvvEEEEEEE, i32 0, inrange i32 0, i32 2), ptr %5, align 8, !dbg !2759
  %6 = getelementptr inbounds %"struct.std::thread::_State_impl", ptr %5, i32 0, i32 1, !dbg !2760
  %7 = load ptr, ptr %4, align 8, !dbg !2761
  call void @_ZNSt6thread8_InvokerISt5tupleIJPFvvEEEEC2EOS5_(ptr noundef nonnull align 8 dereferenceable(8) %6, ptr noundef nonnull align 8 dereferenceable(8) %7) #3, !dbg !2760
  ret void, !dbg !2762
}

; Function Attrs: noinline nounwind optnone uwtable
define linkonce_odr dso_local void @_ZNSt10unique_ptrINSt6thread6_StateESt14default_deleteIS1_EEC2IS3_vEEPS1_(ptr noundef nonnull align 8 dereferenceable(8) %0, ptr noundef %1) unnamed_addr #7 comdat align 2 personality ptr @__gxx_personality_v0 !dbg !2763 {
  %3 = alloca ptr, align 8
  %4 = alloca ptr, align 8
  store ptr %0, ptr %3, align 8
  call void @llvm.dbg.declare(metadata ptr %3, metadata !2767, metadata !DIExpression()), !dbg !2768
  store ptr %1, ptr %4, align 8
  call void @llvm.dbg.declare(metadata ptr %4, metadata !2769, metadata !DIExpression()), !dbg !2770
  %5 = load ptr, ptr %3, align 8
  %6 = getelementptr inbounds %"class.std::unique_ptr", ptr %5, i32 0, i32 0, !dbg !2771
  %7 = load ptr, ptr %4, align 8, !dbg !2772
  invoke void @_ZNSt15__uniq_ptr_implINSt6thread6_StateESt14default_deleteIS1_EEC2EPS1_(ptr noundef nonnull align 8 dereferenceable(8) %6, ptr noundef %7)
          to label %8 unwind label %9, !dbg !2771

8:                                                ; preds = %2
  ret void, !dbg !2773

9:                                                ; preds = %2
  %10 = landingpad { ptr, i32 }
          catch ptr null, !dbg !2771
  %11 = extractvalue { ptr, i32 } %10, 0, !dbg !2771
  call void @__clang_call_terminate(ptr %11) #15, !dbg !2771
  unreachable, !dbg !2771
}

; Function Attrs: noinline nounwind optnone uwtable
define linkonce_odr dso_local void @_ZNSt6thread6_StateC2Ev(ptr noundef nonnull align 8 dereferenceable(8) %0) unnamed_addr #7 comdat align 2 !dbg !2774 {
  %2 = alloca ptr, align 8
  store ptr %0, ptr %2, align 8
  call void @llvm.dbg.declare(metadata ptr %2, metadata !2779, metadata !DIExpression()), !dbg !2780
  %3 = load ptr, ptr %2, align 8
  store ptr getelementptr inbounds ({ [5 x ptr] }, ptr @_ZTVNSt6thread6_StateE, i32 0, inrange i32 0, i32 2), ptr %3, align 8, !dbg !2781
  ret void, !dbg !2781
}

; Function Attrs: noinline nounwind optnone uwtable
define linkonce_odr dso_local void @_ZNSt6thread8_InvokerISt5tupleIJPFvvEEEEC2EOS5_(ptr noundef nonnull align 8 dereferenceable(8) %0, ptr noundef nonnull align 8 dereferenceable(8) %1) unnamed_addr #7 comdat align 2 !dbg !2782 {
  %3 = alloca ptr, align 8
  %4 = alloca ptr, align 8
  store ptr %0, ptr %3, align 8
  call void @llvm.dbg.declare(metadata ptr %3, metadata !2786, metadata !DIExpression()), !dbg !2788
  store ptr %1, ptr %4, align 8
  call void @llvm.dbg.declare(metadata ptr %4, metadata !2789, metadata !DIExpression()), !dbg !2788
  %5 = load ptr, ptr %3, align 8
  %6 = getelementptr inbounds %"struct.std::thread::_Invoker", ptr %5, i32 0, i32 0, !dbg !2790
  %7 = load ptr, ptr %4, align 8, !dbg !2790
  %8 = getelementptr inbounds %"struct.std::thread::_Invoker", ptr %7, i32 0, i32 0, !dbg !2790
  call void @_ZNSt5tupleIJPFvvEEEC2EOS2_(ptr noundef nonnull align 8 dereferenceable(8) %6, ptr noundef nonnull align 8 dereferenceable(8) %8) #3, !dbg !2790
  ret void, !dbg !2790
}

; Function Attrs: noinline nounwind optnone uwtable
define linkonce_odr dso_local void @_ZNSt6thread11_State_implINS_8_InvokerISt5tupleIJPFvvEEEEEED2Ev(ptr noundef nonnull align 8 dereferenceable(16) %0) unnamed_addr #7 comdat align 2 !dbg !2791 {
  %2 = alloca ptr, align 8
  store ptr %0, ptr %2, align 8
  call void @llvm.dbg.declare(metadata ptr %2, metadata !2793, metadata !DIExpression()), !dbg !2794
  %3 = load ptr, ptr %2, align 8
  call void @_ZNSt6thread6_StateD2Ev(ptr noundef nonnull align 8 dereferenceable(8) %3) #3, !dbg !2795
  ret void, !dbg !2797
}

; Function Attrs: noinline nounwind optnone uwtable
define linkonce_odr dso_local void @_ZNSt6thread11_State_implINS_8_InvokerISt5tupleIJPFvvEEEEEED0Ev(ptr noundef nonnull align 8 dereferenceable(16) %0) unnamed_addr #7 comdat align 2 !dbg !2798 {
  %2 = alloca ptr, align 8
  store ptr %0, ptr %2, align 8
  call void @llvm.dbg.declare(metadata ptr %2, metadata !2799, metadata !DIExpression()), !dbg !2800
  %3 = load ptr, ptr %2, align 8
  call void @_ZNSt6thread11_State_implINS_8_InvokerISt5tupleIJPFvvEEEEEED2Ev(ptr noundef nonnull align 8 dereferenceable(16) %3) #3, !dbg !2801
  call void @_ZdlPv(ptr noundef %3) #18, !dbg !2801
  ret void, !dbg !2801
}

; Function Attrs: mustprogress noinline optnone uwtable
define linkonce_odr dso_local void @_ZNSt6thread11_State_implINS_8_InvokerISt5tupleIJPFvvEEEEEE6_M_runEv(ptr noundef nonnull align 8 dereferenceable(16) %0) unnamed_addr #8 comdat align 2 !dbg !2802 {
  %2 = alloca ptr, align 8
  store ptr %0, ptr %2, align 8
  call void @llvm.dbg.declare(metadata ptr %2, metadata !2803, metadata !DIExpression()), !dbg !2804
  %3 = load ptr, ptr %2, align 8
  %4 = getelementptr inbounds %"struct.std::thread::_State_impl", ptr %3, i32 0, i32 1, !dbg !2805
  call void @_ZNSt6thread8_InvokerISt5tupleIJPFvvEEEEclEv(ptr noundef nonnull align 8 dereferenceable(8) %4), !dbg !2805
  ret void, !dbg !2806
}

; Function Attrs: noinline nounwind optnone uwtable
define linkonce_odr dso_local void @_ZNSt5tupleIJPFvvEEEC2EOS2_(ptr noundef nonnull align 8 dereferenceable(8) %0, ptr noundef nonnull align 8 dereferenceable(8) %1) unnamed_addr #7 comdat align 2 !dbg !2807 {
  %3 = alloca ptr, align 8
  %4 = alloca ptr, align 8
  store ptr %0, ptr %3, align 8
  call void @llvm.dbg.declare(metadata ptr %3, metadata !2808, metadata !DIExpression()), !dbg !2810
  store ptr %1, ptr %4, align 8
  call void @llvm.dbg.declare(metadata ptr %4, metadata !2811, metadata !DIExpression()), !dbg !2812
  %5 = load ptr, ptr %3, align 8
  %6 = load ptr, ptr %4, align 8, !dbg !2813
  call void @_ZNSt11_Tuple_implILm0EJPFvvEEEC2EOS2_(ptr noundef nonnull align 8 dereferenceable(8) %5, ptr noundef nonnull align 8 dereferenceable(8) %6) #3, !dbg !2813
  ret void, !dbg !2814
}

; Function Attrs: noinline nounwind optnone uwtable
define linkonce_odr dso_local void @_ZNSt11_Tuple_implILm0EJPFvvEEEC2EOS2_(ptr noundef nonnull align 8 dereferenceable(8) %0, ptr noundef nonnull align 8 dereferenceable(8) %1) unnamed_addr #7 comdat align 2 personality ptr @__gxx_personality_v0 !dbg !2815 {
  %3 = alloca ptr, align 8
  %4 = alloca ptr, align 8
  store ptr %0, ptr %3, align 8
  call void @llvm.dbg.declare(metadata ptr %3, metadata !2816, metadata !DIExpression()), !dbg !2818
  store ptr %1, ptr %4, align 8
  call void @llvm.dbg.declare(metadata ptr %4, metadata !2819, metadata !DIExpression()), !dbg !2820
  %5 = load ptr, ptr %3, align 8
  %6 = load ptr, ptr %4, align 8, !dbg !2821
  %7 = call noundef nonnull align 8 dereferenceable(8) ptr @_ZNSt11_Tuple_implILm0EJPFvvEEE7_M_headERS2_(ptr noundef nonnull align 8 dereferenceable(8) %6) #3, !dbg !2822
  invoke void @_ZNSt10_Head_baseILm0EPFvvELb0EEC2IS1_EEOT_(ptr noundef nonnull align 8 dereferenceable(8) %5, ptr noundef nonnull align 8 dereferenceable(8) %7)
          to label %8 unwind label %9, !dbg !2823

8:                                                ; preds = %2
  ret void, !dbg !2824

9:                                                ; preds = %2
  %10 = landingpad { ptr, i32 }
          catch ptr null, !dbg !2823
  %11 = extractvalue { ptr, i32 } %10, 0, !dbg !2823
  call void @__clang_call_terminate(ptr %11) #15, !dbg !2823
  unreachable, !dbg !2823
}

; Function Attrs: mustprogress noinline nounwind optnone uwtable
define linkonce_odr dso_local noundef nonnull align 8 dereferenceable(8) ptr @_ZNSt11_Tuple_implILm0EJPFvvEEE7_M_headERS2_(ptr noundef nonnull align 8 dereferenceable(8) %0) #4 comdat align 2 !dbg !2825 {
  %2 = alloca ptr, align 8
  store ptr %0, ptr %2, align 8
  call void @llvm.dbg.declare(metadata ptr %2, metadata !2826, metadata !DIExpression()), !dbg !2827
  %3 = load ptr, ptr %2, align 8, !dbg !2828
  %4 = call noundef nonnull align 8 dereferenceable(8) ptr @_ZNSt10_Head_baseILm0EPFvvELb0EE7_M_headERS2_(ptr noundef nonnull align 8 dereferenceable(8) %3) #3, !dbg !2829
  ret ptr %4, !dbg !2830
}

; Function Attrs: noinline nounwind optnone uwtable
define linkonce_odr dso_local void @_ZNSt10_Head_baseILm0EPFvvELb0EEC2IS1_EEOT_(ptr noundef nonnull align 8 dereferenceable(8) %0, ptr noundef nonnull align 8 dereferenceable(8) %1) unnamed_addr #7 comdat align 2 !dbg !2831 {
  %3 = alloca ptr, align 8
  %4 = alloca ptr, align 8
  store ptr %0, ptr %3, align 8
  call void @llvm.dbg.declare(metadata ptr %3, metadata !2837, metadata !DIExpression()), !dbg !2839
  store ptr %1, ptr %4, align 8
  call void @llvm.dbg.declare(metadata ptr %4, metadata !2840, metadata !DIExpression()), !dbg !2841
  %5 = load ptr, ptr %3, align 8
  %6 = getelementptr inbounds %"struct.std::_Head_base.4", ptr %5, i32 0, i32 0, !dbg !2842
  %7 = load ptr, ptr %4, align 8, !dbg !2843
  %8 = load ptr, ptr %7, align 8, !dbg !2844
  store ptr %8, ptr %6, align 8, !dbg !2842
  ret void, !dbg !2845
}

; Function Attrs: mustprogress noinline nounwind optnone uwtable
define linkonce_odr dso_local noundef nonnull align 8 dereferenceable(8) ptr @_ZNSt10_Head_baseILm0EPFvvELb0EE7_M_headERS2_(ptr noundef nonnull align 8 dereferenceable(8) %0) #4 comdat align 2 !dbg !2846 {
  %2 = alloca ptr, align 8
  store ptr %0, ptr %2, align 8
  call void @llvm.dbg.declare(metadata ptr %2, metadata !2847, metadata !DIExpression()), !dbg !2848
  %3 = load ptr, ptr %2, align 8, !dbg !2849
  %4 = getelementptr inbounds %"struct.std::_Head_base.4", ptr %3, i32 0, i32 0, !dbg !2850
  ret ptr %4, !dbg !2851
}

; Function Attrs: nounwind
declare void @_ZNSt6thread6_StateD2Ev(ptr noundef nonnull align 8 dereferenceable(8)) unnamed_addr #2

; Function Attrs: mustprogress noinline optnone uwtable
define linkonce_odr dso_local void @_ZNSt6thread8_InvokerISt5tupleIJPFvvEEEEclEv(ptr noundef nonnull align 8 dereferenceable(8) %0) #8 comdat align 2 !dbg !2852 {
  %2 = alloca ptr, align 8
  %3 = alloca %"struct.std::_Index_tuple", align 1
  store ptr %0, ptr %2, align 8
  call void @llvm.dbg.declare(metadata ptr %2, metadata !2853, metadata !DIExpression()), !dbg !2854
  %4 = load ptr, ptr %2, align 8
  call void @_ZNSt6thread8_InvokerISt5tupleIJPFvvEEEE9_M_invokeIJLm0EEEEvSt12_Index_tupleIJXspT_EEE(ptr noundef nonnull align 8 dereferenceable(8) %4), !dbg !2855
  ret void, !dbg !2856
}

; Function Attrs: mustprogress noinline optnone uwtable
define linkonce_odr dso_local void @_ZNSt6thread8_InvokerISt5tupleIJPFvvEEEE9_M_invokeIJLm0EEEEvSt12_Index_tupleIJXspT_EEE(ptr noundef nonnull align 8 dereferenceable(8) %0) #8 comdat align 2 !dbg !2857 {
  %2 = alloca %"struct.std::_Index_tuple", align 1
  %3 = alloca ptr, align 8
  store ptr %0, ptr %3, align 8
  call void @llvm.dbg.declare(metadata ptr %3, metadata !2869, metadata !DIExpression()), !dbg !2870
  call void @llvm.dbg.declare(metadata ptr %2, metadata !2871, metadata !DIExpression()), !dbg !2872
  %4 = load ptr, ptr %3, align 8
  %5 = getelementptr inbounds %"struct.std::thread::_Invoker", ptr %4, i32 0, i32 0, !dbg !2873
  %6 = call noundef nonnull align 8 dereferenceable(8) ptr @_ZSt3getILm0EJPFvvEEEONSt13tuple_elementIXT_ESt5tupleIJDpT0_EEE4typeEOS6_(ptr noundef nonnull align 8 dereferenceable(8) %5) #3, !dbg !2874
  call void @_ZSt8__invokeIPFvvEJEENSt15__invoke_resultIT_JDpT0_EE4typeEOS3_DpOS4_(ptr noundef nonnull align 8 dereferenceable(8) %6), !dbg !2875
  ret void, !dbg !2876
}

; Function Attrs: mustprogress noinline optnone uwtable
define linkonce_odr dso_local void @_ZSt8__invokeIPFvvEJEENSt15__invoke_resultIT_JDpT0_EE4typeEOS3_DpOS4_(ptr noundef nonnull align 8 dereferenceable(8) %0) #8 comdat !dbg !43 {
  %2 = alloca ptr, align 8
  %3 = alloca %"struct.std::__invoke_other", align 1
  store ptr %0, ptr %2, align 8
  call void @llvm.dbg.declare(metadata ptr %2, metadata !2877, metadata !DIExpression()), !dbg !2878
  %4 = load ptr, ptr %2, align 8, !dbg !2879
  call void @_ZSt13__invoke_implIvPFvvEJEET_St14__invoke_otherOT0_DpOT1_(ptr noundef nonnull align 8 dereferenceable(8) %4), !dbg !2880
  ret void, !dbg !2881
}

; Function Attrs: mustprogress noinline nounwind optnone uwtable
define linkonce_odr dso_local noundef nonnull align 8 dereferenceable(8) ptr @_ZSt3getILm0EJPFvvEEEONSt13tuple_elementIXT_ESt5tupleIJDpT0_EEE4typeEOS6_(ptr noundef nonnull align 8 dereferenceable(8) %0) #4 comdat !dbg !2882 {
  %2 = alloca ptr, align 8
  store ptr %0, ptr %2, align 8
  call void @llvm.dbg.declare(metadata ptr %2, metadata !2894, metadata !DIExpression()), !dbg !2895
  %3 = load ptr, ptr %2, align 8, !dbg !2896
  %4 = call noundef nonnull align 8 dereferenceable(8) ptr @_ZSt3getILm0EJPFvvEEERNSt13tuple_elementIXT_ESt5tupleIJDpT0_EEE4typeERS6_(ptr noundef nonnull align 8 dereferenceable(8) %3) #3, !dbg !2897
  ret ptr %4, !dbg !2898
}

; Function Attrs: mustprogress noinline optnone uwtable
define linkonce_odr dso_local void @_ZSt13__invoke_implIvPFvvEJEET_St14__invoke_otherOT0_DpOT1_(ptr noundef nonnull align 8 dereferenceable(8) %0) #8 comdat !dbg !2899 {
  %2 = alloca %"struct.std::__invoke_other", align 1
  %3 = alloca ptr, align 8
  call void @llvm.dbg.declare(metadata ptr %2, metadata !2905, metadata !DIExpression()), !dbg !2906
  store ptr %0, ptr %3, align 8
  call void @llvm.dbg.declare(metadata ptr %3, metadata !2907, metadata !DIExpression()), !dbg !2908
  %4 = load ptr, ptr %3, align 8, !dbg !2909
  %5 = load ptr, ptr %4, align 8, !dbg !2910
  call void %5(), !dbg !2910
  ret void, !dbg !2911
}

; Function Attrs: mustprogress noinline nounwind optnone uwtable
define linkonce_odr dso_local noundef nonnull align 8 dereferenceable(8) ptr @_ZSt3getILm0EJPFvvEEERNSt13tuple_elementIXT_ESt5tupleIJDpT0_EEE4typeERS6_(ptr noundef nonnull align 8 dereferenceable(8) %0) #4 comdat !dbg !2912 {
  %2 = alloca ptr, align 8
  store ptr %0, ptr %2, align 8
  call void @llvm.dbg.declare(metadata ptr %2, metadata !2916, metadata !DIExpression()), !dbg !2917
  %3 = load ptr, ptr %2, align 8, !dbg !2918
  %4 = call noundef nonnull align 8 dereferenceable(8) ptr @_ZSt12__get_helperILm0EPFvvEJEERT0_RSt11_Tuple_implIXT_EJS2_DpT1_EE(ptr noundef nonnull align 8 dereferenceable(8) %3) #3, !dbg !2919
  ret ptr %4, !dbg !2920
}

; Function Attrs: mustprogress noinline nounwind optnone uwtable
define linkonce_odr dso_local noundef nonnull align 8 dereferenceable(8) ptr @_ZSt12__get_helperILm0EPFvvEJEERT0_RSt11_Tuple_implIXT_EJS2_DpT1_EE(ptr noundef nonnull align 8 dereferenceable(8) %0) #4 comdat !dbg !2921 {
  %2 = alloca ptr, align 8
  store ptr %0, ptr %2, align 8
  call void @llvm.dbg.declare(metadata ptr %2, metadata !2924, metadata !DIExpression()), !dbg !2925
  %3 = load ptr, ptr %2, align 8, !dbg !2926
  %4 = call noundef nonnull align 8 dereferenceable(8) ptr @_ZNSt11_Tuple_implILm0EJPFvvEEE7_M_headERS2_(ptr noundef nonnull align 8 dereferenceable(8) %3) #3, !dbg !2927
  ret ptr %4, !dbg !2928
}

; Function Attrs: noinline optnone uwtable
define linkonce_odr dso_local void @_ZNSt15__uniq_ptr_implINSt6thread6_StateESt14default_deleteIS1_EEC2EPS1_(ptr noundef nonnull align 8 dereferenceable(8) %0, ptr noundef %1) unnamed_addr #12 comdat align 2 !dbg !2929 {
  %3 = alloca ptr, align 8
  %4 = alloca ptr, align 8
  store ptr %0, ptr %3, align 8
  call void @llvm.dbg.declare(metadata ptr %3, metadata !2930, metadata !DIExpression()), !dbg !2932
  store ptr %1, ptr %4, align 8
  call void @llvm.dbg.declare(metadata ptr %4, metadata !2933, metadata !DIExpression()), !dbg !2934
  %5 = load ptr, ptr %3, align 8
  %6 = getelementptr inbounds %"class.std::__uniq_ptr_impl", ptr %5, i32 0, i32 0, !dbg !2935
  call void @_ZNSt5tupleIJPNSt6thread6_StateESt14default_deleteIS1_EEEC2IS2_S4_Lb1EEEv(ptr noundef nonnull align 8 dereferenceable(8) %6), !dbg !2935
  %7 = load ptr, ptr %4, align 8, !dbg !2936
  %8 = call noundef nonnull align 8 dereferenceable(8) ptr @_ZNSt15__uniq_ptr_implINSt6thread6_StateESt14default_deleteIS1_EE6_M_ptrEv(ptr noundef nonnull align 8 dereferenceable(8) %5), !dbg !2938
  store ptr %7, ptr %8, align 8, !dbg !2939
  ret void, !dbg !2940
}

; Function Attrs: noinline optnone uwtable
define linkonce_odr dso_local void @_ZNSt5tupleIJPNSt6thread6_StateESt14default_deleteIS1_EEEC2IS2_S4_Lb1EEEv(ptr noundef nonnull align 8 dereferenceable(8) %0) unnamed_addr #12 comdat align 2 !dbg !2941 {
  %2 = alloca ptr, align 8
  store ptr %0, ptr %2, align 8
  call void @llvm.dbg.declare(metadata ptr %2, metadata !2949, metadata !DIExpression()), !dbg !2951
  %3 = load ptr, ptr %2, align 8
  call void @_ZNSt11_Tuple_implILm0EJPNSt6thread6_StateESt14default_deleteIS1_EEEC2Ev(ptr noundef nonnull align 8 dereferenceable(8) %3), !dbg !2952
  ret void, !dbg !2953
}

; Function Attrs: mustprogress noinline nounwind optnone uwtable
define linkonce_odr dso_local noundef nonnull align 8 dereferenceable(8) ptr @_ZNSt15__uniq_ptr_implINSt6thread6_StateESt14default_deleteIS1_EE6_M_ptrEv(ptr noundef nonnull align 8 dereferenceable(8) %0) #4 comdat align 2 !dbg !2954 {
  %2 = alloca ptr, align 8
  store ptr %0, ptr %2, align 8
  call void @llvm.dbg.declare(metadata ptr %2, metadata !2955, metadata !DIExpression()), !dbg !2956
  %3 = load ptr, ptr %2, align 8
  %4 = getelementptr inbounds %"class.std::__uniq_ptr_impl", ptr %3, i32 0, i32 0, !dbg !2957
  %5 = call noundef nonnull align 8 dereferenceable(8) ptr @_ZSt3getILm0EJPNSt6thread6_StateESt14default_deleteIS1_EEERNSt13tuple_elementIXT_ESt5tupleIJDpT0_EEE4typeERS9_(ptr noundef nonnull align 8 dereferenceable(8) %4) #3, !dbg !2958
  ret ptr %5, !dbg !2959
}

; Function Attrs: noinline optnone uwtable
define linkonce_odr dso_local void @_ZNSt11_Tuple_implILm0EJPNSt6thread6_StateESt14default_deleteIS1_EEEC2Ev(ptr noundef nonnull align 8 dereferenceable(8) %0) unnamed_addr #12 comdat align 2 !dbg !2960 {
  %2 = alloca ptr, align 8
  store ptr %0, ptr %2, align 8
  call void @llvm.dbg.declare(metadata ptr %2, metadata !2961, metadata !DIExpression()), !dbg !2963
  %3 = load ptr, ptr %2, align 8
  call void @_ZNSt11_Tuple_implILm1EJSt14default_deleteINSt6thread6_StateEEEEC2Ev(ptr noundef nonnull align 1 dereferenceable(1) %3), !dbg !2964
  call void @_ZNSt10_Head_baseILm0EPNSt6thread6_StateELb0EEC2Ev(ptr noundef nonnull align 8 dereferenceable(8) %3), !dbg !2965
  ret void, !dbg !2966
}

; Function Attrs: noinline optnone uwtable
define linkonce_odr dso_local void @_ZNSt11_Tuple_implILm1EJSt14default_deleteINSt6thread6_StateEEEEC2Ev(ptr noundef nonnull align 1 dereferenceable(1) %0) unnamed_addr #12 comdat align 2 !dbg !2967 {
  %2 = alloca ptr, align 8
  store ptr %0, ptr %2, align 8
  call void @llvm.dbg.declare(metadata ptr %2, metadata !2968, metadata !DIExpression()), !dbg !2970
  %3 = load ptr, ptr %2, align 8
  call void @_ZNSt10_Head_baseILm1ESt14default_deleteINSt6thread6_StateEELb1EEC2Ev(ptr noundef nonnull align 1 dereferenceable(1) %3), !dbg !2971
  ret void, !dbg !2972
}

; Function Attrs: noinline nounwind optnone uwtable
define linkonce_odr dso_local void @_ZNSt10_Head_baseILm0EPNSt6thread6_StateELb0EEC2Ev(ptr noundef nonnull align 8 dereferenceable(8) %0) unnamed_addr #7 comdat align 2 !dbg !2973 {
  %2 = alloca ptr, align 8
  store ptr %0, ptr %2, align 8
  call void @llvm.dbg.declare(metadata ptr %2, metadata !2974, metadata !DIExpression()), !dbg !2976
  %3 = load ptr, ptr %2, align 8
  %4 = getelementptr inbounds %"struct.std::_Head_base.1", ptr %3, i32 0, i32 0, !dbg !2977
  store ptr null, ptr %4, align 8, !dbg !2977
  ret void, !dbg !2978
}

; Function Attrs: noinline nounwind optnone uwtable
define linkonce_odr dso_local void @_ZNSt10_Head_baseILm1ESt14default_deleteINSt6thread6_StateEELb1EEC2Ev(ptr noundef nonnull align 1 dereferenceable(1) %0) unnamed_addr #7 comdat align 2 !dbg !2979 {
  %2 = alloca ptr, align 8
  store ptr %0, ptr %2, align 8
  call void @llvm.dbg.declare(metadata ptr %2, metadata !2980, metadata !DIExpression()), !dbg !2982
  %3 = load ptr, ptr %2, align 8
  ret void, !dbg !2983
}

; Function Attrs: mustprogress noinline nounwind optnone uwtable
define linkonce_odr dso_local noundef nonnull align 8 dereferenceable(8) ptr @_ZSt3getILm0EJPNSt6thread6_StateESt14default_deleteIS1_EEERNSt13tuple_elementIXT_ESt5tupleIJDpT0_EEE4typeERS9_(ptr noundef nonnull align 8 dereferenceable(8) %0) #4 comdat !dbg !2984 {
  %2 = alloca ptr, align 8
  store ptr %0, ptr %2, align 8
  call void @llvm.dbg.declare(metadata ptr %2, metadata !2994, metadata !DIExpression()), !dbg !2995
  %3 = load ptr, ptr %2, align 8, !dbg !2996
  %4 = call noundef nonnull align 8 dereferenceable(8) ptr @_ZSt12__get_helperILm0EPNSt6thread6_StateEJSt14default_deleteIS1_EEERT0_RSt11_Tuple_implIXT_EJS5_DpT1_EE(ptr noundef nonnull align 8 dereferenceable(8) %3) #3, !dbg !2997
  ret ptr %4, !dbg !2998
}

; Function Attrs: mustprogress noinline nounwind optnone uwtable
define linkonce_odr dso_local noundef nonnull align 8 dereferenceable(8) ptr @_ZSt12__get_helperILm0EPNSt6thread6_StateEJSt14default_deleteIS1_EEERT0_RSt11_Tuple_implIXT_EJS5_DpT1_EE(ptr noundef nonnull align 8 dereferenceable(8) %0) #4 comdat !dbg !2999 {
  %2 = alloca ptr, align 8
  store ptr %0, ptr %2, align 8
  call void @llvm.dbg.declare(metadata ptr %2, metadata !3002, metadata !DIExpression()), !dbg !3003
  %3 = load ptr, ptr %2, align 8, !dbg !3004
  %4 = call noundef nonnull align 8 dereferenceable(8) ptr @_ZNSt11_Tuple_implILm0EJPNSt6thread6_StateESt14default_deleteIS1_EEE7_M_headERS5_(ptr noundef nonnull align 8 dereferenceable(8) %3) #3, !dbg !3005
  ret ptr %4, !dbg !3006
}

; Function Attrs: mustprogress noinline nounwind optnone uwtable
define linkonce_odr dso_local noundef nonnull align 8 dereferenceable(8) ptr @_ZNSt11_Tuple_implILm0EJPNSt6thread6_StateESt14default_deleteIS1_EEE7_M_headERS5_(ptr noundef nonnull align 8 dereferenceable(8) %0) #4 comdat align 2 !dbg !3007 {
  %2 = alloca ptr, align 8
  store ptr %0, ptr %2, align 8
  call void @llvm.dbg.declare(metadata ptr %2, metadata !3008, metadata !DIExpression()), !dbg !3009
  %3 = load ptr, ptr %2, align 8, !dbg !3010
  %4 = call noundef nonnull align 8 dereferenceable(8) ptr @_ZNSt10_Head_baseILm0EPNSt6thread6_StateELb0EE7_M_headERS3_(ptr noundef nonnull align 8 dereferenceable(8) %3) #3, !dbg !3011
  ret ptr %4, !dbg !3012
}

; Function Attrs: mustprogress noinline nounwind optnone uwtable
define linkonce_odr dso_local noundef nonnull align 8 dereferenceable(8) ptr @_ZNSt10_Head_baseILm0EPNSt6thread6_StateELb0EE7_M_headERS3_(ptr noundef nonnull align 8 dereferenceable(8) %0) #4 comdat align 2 !dbg !3013 {
  %2 = alloca ptr, align 8
  store ptr %0, ptr %2, align 8
  call void @llvm.dbg.declare(metadata ptr %2, metadata !3014, metadata !DIExpression()), !dbg !3015
  %3 = load ptr, ptr %2, align 8, !dbg !3016
  %4 = getelementptr inbounds %"struct.std::_Head_base.1", ptr %3, i32 0, i32 0, !dbg !3017
  ret ptr %4, !dbg !3018
}

; Function Attrs: noinline optnone uwtable
define linkonce_odr dso_local void @_ZNSt5tupleIJPFvvEEEC2IvLb1EEERKS1_(ptr noundef nonnull align 8 dereferenceable(8) %0, ptr noundef nonnull align 8 dereferenceable(8) %1) unnamed_addr #12 comdat align 2 !dbg !3019 {
  %3 = alloca ptr, align 8
  %4 = alloca ptr, align 8
  store ptr %0, ptr %3, align 8
  call void @llvm.dbg.declare(metadata ptr %3, metadata !3025, metadata !DIExpression()), !dbg !3026
  store ptr %1, ptr %4, align 8
  call void @llvm.dbg.declare(metadata ptr %4, metadata !3027, metadata !DIExpression()), !dbg !3028
  %5 = load ptr, ptr %3, align 8
  %6 = load ptr, ptr %4, align 8, !dbg !3029
  call void @_ZNSt11_Tuple_implILm0EJPFvvEEEC2ERKS1_(ptr noundef nonnull align 8 dereferenceable(8) %5, ptr noundef nonnull align 8 dereferenceable(8) %6), !dbg !3030
  ret void, !dbg !3031
}

; Function Attrs: noinline optnone uwtable
define linkonce_odr dso_local void @_ZNSt11_Tuple_implILm0EJPFvvEEEC2ERKS1_(ptr noundef nonnull align 8 dereferenceable(8) %0, ptr noundef nonnull align 8 dereferenceable(8) %1) unnamed_addr #12 comdat align 2 !dbg !3032 {
  %3 = alloca ptr, align 8
  %4 = alloca ptr, align 8
  store ptr %0, ptr %3, align 8
  call void @llvm.dbg.declare(metadata ptr %3, metadata !3033, metadata !DIExpression()), !dbg !3034
  store ptr %1, ptr %4, align 8
  call void @llvm.dbg.declare(metadata ptr %4, metadata !3035, metadata !DIExpression()), !dbg !3036
  %5 = load ptr, ptr %3, align 8
  %6 = load ptr, ptr %4, align 8, !dbg !3037
  call void @_ZNSt10_Head_baseILm0EPFvvELb0EEC2ERKS1_(ptr noundef nonnull align 8 dereferenceable(8) %5, ptr noundef nonnull align 8 dereferenceable(8) %6), !dbg !3038
  ret void, !dbg !3039
}

; Function Attrs: noinline nounwind optnone uwtable
define linkonce_odr dso_local void @_ZNSt10_Head_baseILm0EPFvvELb0EEC2ERKS1_(ptr noundef nonnull align 8 dereferenceable(8) %0, ptr noundef nonnull align 8 dereferenceable(8) %1) unnamed_addr #7 comdat align 2 !dbg !3040 {
  %3 = alloca ptr, align 8
  %4 = alloca ptr, align 8
  store ptr %0, ptr %3, align 8
  call void @llvm.dbg.declare(metadata ptr %3, metadata !3041, metadata !DIExpression()), !dbg !3042
  store ptr %1, ptr %4, align 8
  call void @llvm.dbg.declare(metadata ptr %4, metadata !3043, metadata !DIExpression()), !dbg !3044
  %5 = load ptr, ptr %3, align 8
  %6 = getelementptr inbounds %"struct.std::_Head_base.4", ptr %5, i32 0, i32 0, !dbg !3045
  %7 = load ptr, ptr %4, align 8, !dbg !3046
  %8 = load ptr, ptr %7, align 8, !dbg !3046
  store ptr %8, ptr %6, align 8, !dbg !3045
  ret void, !dbg !3047
}

; Function Attrs: mustprogress noinline nounwind optnone uwtable
define linkonce_odr dso_local noundef nonnull align 1 dereferenceable(1) ptr @_ZNSt10unique_ptrINSt6thread6_StateESt14default_deleteIS1_EE11get_deleterEv(ptr noundef nonnull align 8 dereferenceable(8) %0) #4 comdat align 2 personality ptr @__gxx_personality_v0 !dbg !3048 {
  %2 = alloca ptr, align 8
  store ptr %0, ptr %2, align 8
  call void @llvm.dbg.declare(metadata ptr %2, metadata !3049, metadata !DIExpression()), !dbg !3050
  %3 = load ptr, ptr %2, align 8
  %4 = getelementptr inbounds %"class.std::unique_ptr", ptr %3, i32 0, i32 0, !dbg !3051
  %5 = invoke noundef nonnull align 1 dereferenceable(1) ptr @_ZNSt15__uniq_ptr_implINSt6thread6_StateESt14default_deleteIS1_EE10_M_deleterEv(ptr noundef nonnull align 8 dereferenceable(8) %4)
          to label %6 unwind label %7, !dbg !3052

6:                                                ; preds = %1
  ret ptr %5, !dbg !3053

7:                                                ; preds = %1
  %8 = landingpad { ptr, i32 }
          catch ptr null, !dbg !3052
  %9 = extractvalue { ptr, i32 } %8, 0, !dbg !3052
  call void @__clang_call_terminate(ptr %9) #15, !dbg !3052
  unreachable, !dbg !3052
}

; Function Attrs: mustprogress noinline nounwind optnone uwtable
define linkonce_odr dso_local void @_ZNKSt14default_deleteINSt6thread6_StateEEclEPS1_(ptr noundef nonnull align 1 dereferenceable(1) %0, ptr noundef %1) #4 comdat align 2 !dbg !3054 {
  %3 = alloca ptr, align 8
  %4 = alloca ptr, align 8
  store ptr %0, ptr %3, align 8
  call void @llvm.dbg.declare(metadata ptr %3, metadata !3055, metadata !DIExpression()), !dbg !3057
  store ptr %1, ptr %4, align 8
  call void @llvm.dbg.declare(metadata ptr %4, metadata !3058, metadata !DIExpression()), !dbg !3059
  %5 = load ptr, ptr %3, align 8
  %6 = load ptr, ptr %4, align 8, !dbg !3060
  %7 = icmp eq ptr %6, null, !dbg !3061
  br i1 %7, label %12, label %8, !dbg !3061

8:                                                ; preds = %2
  %9 = load ptr, ptr %6, align 8, !dbg !3061
  %10 = getelementptr inbounds ptr, ptr %9, i64 1, !dbg !3061
  %11 = load ptr, ptr %10, align 8, !dbg !3061
  call void %11(ptr noundef nonnull align 8 dereferenceable(8) %6) #3, !dbg !3061
  br label %12, !dbg !3061

12:                                               ; preds = %8, %2
  ret void, !dbg !3062
}

; Function Attrs: mustprogress noinline nounwind optnone uwtable
define linkonce_odr dso_local noundef nonnull align 1 dereferenceable(1) ptr @_ZNSt15__uniq_ptr_implINSt6thread6_StateESt14default_deleteIS1_EE10_M_deleterEv(ptr noundef nonnull align 8 dereferenceable(8) %0) #4 comdat align 2 !dbg !3063 {
  %2 = alloca ptr, align 8
  store ptr %0, ptr %2, align 8
  call void @llvm.dbg.declare(metadata ptr %2, metadata !3064, metadata !DIExpression()), !dbg !3065
  %3 = load ptr, ptr %2, align 8
  %4 = getelementptr inbounds %"class.std::__uniq_ptr_impl", ptr %3, i32 0, i32 0, !dbg !3066
  %5 = call noundef nonnull align 1 dereferenceable(1) ptr @_ZSt3getILm1EJPNSt6thread6_StateESt14default_deleteIS1_EEERNSt13tuple_elementIXT_ESt5tupleIJDpT0_EEE4typeERS9_(ptr noundef nonnull align 8 dereferenceable(8) %4) #3, !dbg !3067
  ret ptr %5, !dbg !3068
}

; Function Attrs: mustprogress noinline nounwind optnone uwtable
define linkonce_odr dso_local noundef nonnull align 1 dereferenceable(1) ptr @_ZSt3getILm1EJPNSt6thread6_StateESt14default_deleteIS1_EEERNSt13tuple_elementIXT_ESt5tupleIJDpT0_EEE4typeERS9_(ptr noundef nonnull align 8 dereferenceable(8) %0) #4 comdat !dbg !3069 {
  %2 = alloca ptr, align 8
  store ptr %0, ptr %2, align 8
  call void @llvm.dbg.declare(metadata ptr %2, metadata !3081, metadata !DIExpression()), !dbg !3082
  %3 = load ptr, ptr %2, align 8, !dbg !3083
  %4 = call noundef nonnull align 1 dereferenceable(1) ptr @_ZSt12__get_helperILm1ESt14default_deleteINSt6thread6_StateEEJEERT0_RSt11_Tuple_implIXT_EJS4_DpT1_EE(ptr noundef nonnull align 1 dereferenceable(1) %3) #3, !dbg !3084
  ret ptr %4, !dbg !3085
}

; Function Attrs: mustprogress noinline nounwind optnone uwtable
define linkonce_odr dso_local noundef nonnull align 1 dereferenceable(1) ptr @_ZSt12__get_helperILm1ESt14default_deleteINSt6thread6_StateEEJEERT0_RSt11_Tuple_implIXT_EJS4_DpT1_EE(ptr noundef nonnull align 1 dereferenceable(1) %0) #4 comdat !dbg !3086 {
  %2 = alloca ptr, align 8
  store ptr %0, ptr %2, align 8
  call void @llvm.dbg.declare(metadata ptr %2, metadata !3088, metadata !DIExpression()), !dbg !3089
  %3 = load ptr, ptr %2, align 8, !dbg !3090
  %4 = call noundef nonnull align 1 dereferenceable(1) ptr @_ZNSt11_Tuple_implILm1EJSt14default_deleteINSt6thread6_StateEEEE7_M_headERS4_(ptr noundef nonnull align 1 dereferenceable(1) %3) #3, !dbg !3091
  ret ptr %4, !dbg !3092
}

; Function Attrs: mustprogress noinline nounwind optnone uwtable
define linkonce_odr dso_local noundef nonnull align 1 dereferenceable(1) ptr @_ZNSt11_Tuple_implILm1EJSt14default_deleteINSt6thread6_StateEEEE7_M_headERS4_(ptr noundef nonnull align 1 dereferenceable(1) %0) #4 comdat align 2 !dbg !3093 {
  %2 = alloca ptr, align 8
  store ptr %0, ptr %2, align 8
  call void @llvm.dbg.declare(metadata ptr %2, metadata !3094, metadata !DIExpression()), !dbg !3095
  %3 = load ptr, ptr %2, align 8, !dbg !3096
  %4 = call noundef nonnull align 1 dereferenceable(1) ptr @_ZNSt10_Head_baseILm1ESt14default_deleteINSt6thread6_StateEELb1EE7_M_headERS4_(ptr noundef nonnull align 1 dereferenceable(1) %3) #3, !dbg !3097
  ret ptr %4, !dbg !3098
}

; Function Attrs: mustprogress noinline nounwind optnone uwtable
define linkonce_odr dso_local noundef nonnull align 1 dereferenceable(1) ptr @_ZNSt10_Head_baseILm1ESt14default_deleteINSt6thread6_StateEELb1EE7_M_headERS4_(ptr noundef nonnull align 1 dereferenceable(1) %0) #4 comdat align 2 !dbg !3099 {
  %2 = alloca ptr, align 8
  store ptr %0, ptr %2, align 8
  call void @llvm.dbg.declare(metadata ptr %2, metadata !3100, metadata !DIExpression()), !dbg !3101
  %3 = load ptr, ptr %2, align 8, !dbg !3102
  ret ptr %3, !dbg !3103
}

; Function Attrs: mustprogress noinline optnone uwtable
define linkonce_odr dso_local noundef i64 @_ZNKSt6vectorISt6threadSaIS0_EE12_M_check_lenEmPKc(ptr noundef nonnull align 8 dereferenceable(24) %0, i64 noundef %1, ptr noundef %2) #8 comdat align 2 !dbg !3104 {
  %4 = alloca ptr, align 8
  %5 = alloca i64, align 8
  %6 = alloca ptr, align 8
  %7 = alloca i64, align 8
  %8 = alloca i64, align 8
  store ptr %0, ptr %4, align 8
  call void @llvm.dbg.declare(metadata ptr %4, metadata !3105, metadata !DIExpression()), !dbg !3107
  store i64 %1, ptr %5, align 8
  call void @llvm.dbg.declare(metadata ptr %5, metadata !3108, metadata !DIExpression()), !dbg !3109
  store ptr %2, ptr %6, align 8
  call void @llvm.dbg.declare(metadata ptr %6, metadata !3110, metadata !DIExpression()), !dbg !3111
  %9 = load ptr, ptr %4, align 8
  %10 = call noundef i64 @_ZNKSt6vectorISt6threadSaIS0_EE8max_sizeEv(ptr noundef nonnull align 8 dereferenceable(24) %9) #3, !dbg !3112
  %11 = call noundef i64 @_ZNKSt6vectorISt6threadSaIS0_EE4sizeEv(ptr noundef nonnull align 8 dereferenceable(24) %9) #3, !dbg !3114
  %12 = sub i64 %10, %11, !dbg !3115
  %13 = load i64, ptr %5, align 8, !dbg !3116
  %14 = icmp ult i64 %12, %13, !dbg !3117
  br i1 %14, label %15, label %17, !dbg !3118

15:                                               ; preds = %3
  %16 = load ptr, ptr %6, align 8, !dbg !3119
  call void @_ZSt20__throw_length_errorPKc(ptr noundef %16) #16, !dbg !3120
  unreachable, !dbg !3120

17:                                               ; preds = %3
  call void @llvm.dbg.declare(metadata ptr %7, metadata !3121, metadata !DIExpression()), !dbg !3122
  %18 = call noundef i64 @_ZNKSt6vectorISt6threadSaIS0_EE4sizeEv(ptr noundef nonnull align 8 dereferenceable(24) %9) #3, !dbg !3123
  %19 = call noundef i64 @_ZNKSt6vectorISt6threadSaIS0_EE4sizeEv(ptr noundef nonnull align 8 dereferenceable(24) %9) #3, !dbg !3124
  store i64 %19, ptr %8, align 8, !dbg !3124
  %20 = call noundef nonnull align 8 dereferenceable(8) ptr @_ZSt3maxImERKT_S2_S2_(ptr noundef nonnull align 8 dereferenceable(8) %8, ptr noundef nonnull align 8 dereferenceable(8) %5), !dbg !3125
  %21 = load i64, ptr %20, align 8, !dbg !3125
  %22 = add i64 %18, %21, !dbg !3126
  store i64 %22, ptr %7, align 8, !dbg !3122
  %23 = load i64, ptr %7, align 8, !dbg !3127
  %24 = call noundef i64 @_ZNKSt6vectorISt6threadSaIS0_EE4sizeEv(ptr noundef nonnull align 8 dereferenceable(24) %9) #3, !dbg !3128
  %25 = icmp ult i64 %23, %24, !dbg !3129
  br i1 %25, label %30, label %26, !dbg !3130

26:                                               ; preds = %17
  %27 = load i64, ptr %7, align 8, !dbg !3131
  %28 = call noundef i64 @_ZNKSt6vectorISt6threadSaIS0_EE8max_sizeEv(ptr noundef nonnull align 8 dereferenceable(24) %9) #3, !dbg !3132
  %29 = icmp ugt i64 %27, %28, !dbg !3133
  br i1 %29, label %30, label %32, !dbg !3134

30:                                               ; preds = %26, %17
  %31 = call noundef i64 @_ZNKSt6vectorISt6threadSaIS0_EE8max_sizeEv(ptr noundef nonnull align 8 dereferenceable(24) %9) #3, !dbg !3135
  br label %34, !dbg !3134

32:                                               ; preds = %26
  %33 = load i64, ptr %7, align 8, !dbg !3136
  br label %34, !dbg !3134

34:                                               ; preds = %32, %30
  %35 = phi i64 [ %31, %30 ], [ %33, %32 ], !dbg !3134
  ret i64 %35, !dbg !3137
}

; Function Attrs: mustprogress noinline nounwind optnone uwtable
define linkonce_odr dso_local noundef i64 @_ZN9__gnu_cxxmiIPSt6threadSt6vectorIS1_SaIS1_EEEENS_17__normal_iteratorIT_T0_E15difference_typeERKS9_SC_(ptr noundef nonnull align 8 dereferenceable(8) %0, ptr noundef nonnull align 8 dereferenceable(8) %1) #4 comdat !dbg !3138 {
  %3 = alloca ptr, align 8
  %4 = alloca ptr, align 8
  store ptr %0, ptr %3, align 8
  call void @llvm.dbg.declare(metadata ptr %3, metadata !3141, metadata !DIExpression()), !dbg !3142
  store ptr %1, ptr %4, align 8
  call void @llvm.dbg.declare(metadata ptr %4, metadata !3143, metadata !DIExpression()), !dbg !3144
  %5 = load ptr, ptr %3, align 8, !dbg !3145
  %6 = call noundef nonnull align 8 dereferenceable(8) ptr @_ZNK9__gnu_cxx17__normal_iteratorIPSt6threadSt6vectorIS1_SaIS1_EEE4baseEv(ptr noundef nonnull align 8 dereferenceable(8) %5) #3, !dbg !3146
  %7 = load ptr, ptr %6, align 8, !dbg !3146
  %8 = load ptr, ptr %4, align 8, !dbg !3147
  %9 = call noundef nonnull align 8 dereferenceable(8) ptr @_ZNK9__gnu_cxx17__normal_iteratorIPSt6threadSt6vectorIS1_SaIS1_EEE4baseEv(ptr noundef nonnull align 8 dereferenceable(8) %8) #3, !dbg !3148
  %10 = load ptr, ptr %9, align 8, !dbg !3148
  %11 = ptrtoint ptr %7 to i64, !dbg !3149
  %12 = ptrtoint ptr %10 to i64, !dbg !3149
  %13 = sub i64 %11, %12, !dbg !3149
  %14 = sdiv exact i64 %13, 8, !dbg !3149
  ret i64 %14, !dbg !3150
}

; Function Attrs: mustprogress noinline optnone uwtable
define linkonce_odr dso_local noundef ptr @_ZNSt12_Vector_baseISt6threadSaIS0_EE11_M_allocateEm(ptr noundef nonnull align 8 dereferenceable(24) %0, i64 noundef %1) #8 comdat align 2 !dbg !3151 {
  %3 = alloca ptr, align 8
  %4 = alloca i64, align 8
  store ptr %0, ptr %3, align 8
  call void @llvm.dbg.declare(metadata ptr %3, metadata !3152, metadata !DIExpression()), !dbg !3153
  store i64 %1, ptr %4, align 8
  call void @llvm.dbg.declare(metadata ptr %4, metadata !3154, metadata !DIExpression()), !dbg !3155
  %5 = load ptr, ptr %3, align 8
  %6 = load i64, ptr %4, align 8, !dbg !3156
  %7 = icmp ne i64 %6, 0, !dbg !3157
  br i1 %7, label %8, label %12, !dbg !3156

8:                                                ; preds = %2
  %9 = getelementptr inbounds %"struct.std::_Vector_base", ptr %5, i32 0, i32 0, !dbg !3158
  %10 = load i64, ptr %4, align 8, !dbg !3159
  %11 = call noundef ptr @_ZNSt16allocator_traitsISaISt6threadEE8allocateERS1_m(ptr noundef nonnull align 1 dereferenceable(1) %9, i64 noundef %10), !dbg !3160
  br label %13, !dbg !3156

12:                                               ; preds = %2
  br label %13, !dbg !3156

13:                                               ; preds = %12, %8
  %14 = phi ptr [ %11, %8 ], [ null, %12 ], !dbg !3156
  ret ptr %14, !dbg !3161
}

; Function Attrs: mustprogress noinline nounwind optnone uwtable
define linkonce_odr dso_local noundef ptr @_ZNSt6vectorISt6threadSaIS0_EE11_S_relocateEPS0_S3_S3_RS1_(ptr noundef %0, ptr noundef %1, ptr noundef %2, ptr noundef nonnull align 1 dereferenceable(1) %3) #4 comdat align 2 !dbg !467 {
  %5 = alloca ptr, align 8
  %6 = alloca ptr, align 8
  %7 = alloca ptr, align 8
  %8 = alloca ptr, align 8
  %9 = alloca %"struct.std::integral_constant", align 1
  store ptr %0, ptr %5, align 8
  call void @llvm.dbg.declare(metadata ptr %5, metadata !3162, metadata !DIExpression()), !dbg !3163
  store ptr %1, ptr %6, align 8
  call void @llvm.dbg.declare(metadata ptr %6, metadata !3164, metadata !DIExpression()), !dbg !3165
  store ptr %2, ptr %7, align 8
  call void @llvm.dbg.declare(metadata ptr %7, metadata !3166, metadata !DIExpression()), !dbg !3167
  store ptr %3, ptr %8, align 8
  call void @llvm.dbg.declare(metadata ptr %8, metadata !3168, metadata !DIExpression()), !dbg !3169
  %10 = load ptr, ptr %5, align 8, !dbg !3170
  %11 = load ptr, ptr %6, align 8, !dbg !3171
  %12 = load ptr, ptr %7, align 8, !dbg !3172
  %13 = load ptr, ptr %8, align 8, !dbg !3173
  %14 = call noundef ptr @_ZNSt6vectorISt6threadSaIS0_EE14_S_do_relocateEPS0_S3_S3_RS1_St17integral_constantIbLb1EE(ptr noundef %10, ptr noundef %11, ptr noundef %12, ptr noundef nonnull align 1 dereferenceable(1) %13) #3, !dbg !3174
  ret ptr %14, !dbg !3175
}

; Function Attrs: mustprogress noinline nounwind optnone uwtable
define linkonce_odr dso_local noundef nonnull align 8 dereferenceable(8) ptr @_ZNK9__gnu_cxx17__normal_iteratorIPSt6threadSt6vectorIS1_SaIS1_EEE4baseEv(ptr noundef nonnull align 8 dereferenceable(8) %0) #4 comdat align 2 !dbg !3176 {
  %2 = alloca ptr, align 8
  store ptr %0, ptr %2, align 8
  call void @llvm.dbg.declare(metadata ptr %2, metadata !3177, metadata !DIExpression()), !dbg !3178
  %3 = load ptr, ptr %2, align 8
  %4 = getelementptr inbounds %"class.__gnu_cxx::__normal_iterator", ptr %3, i32 0, i32 0, !dbg !3179
  ret ptr %4, !dbg !3180
}

; Function Attrs: mustprogress noinline nounwind optnone uwtable
define linkonce_odr dso_local void @_ZNSt16allocator_traitsISaISt6threadEE7destroyIS0_EEvRS1_PT_(ptr noundef nonnull align 1 dereferenceable(1) %0, ptr noundef %1) #4 comdat align 2 !dbg !3181 {
  %3 = alloca ptr, align 8
  %4 = alloca ptr, align 8
  store ptr %0, ptr %3, align 8
  call void @llvm.dbg.declare(metadata ptr %3, metadata !3186, metadata !DIExpression()), !dbg !3187
  store ptr %1, ptr %4, align 8
  call void @llvm.dbg.declare(metadata ptr %4, metadata !3188, metadata !DIExpression()), !dbg !3189
  %5 = load ptr, ptr %3, align 8, !dbg !3190
  %6 = load ptr, ptr %4, align 8, !dbg !3191
  call void @_ZN9__gnu_cxx13new_allocatorISt6threadE7destroyIS1_EEvPT_(ptr noundef nonnull align 1 dereferenceable(1) %5, ptr noundef %6) #3, !dbg !3192
  ret void, !dbg !3193
}

declare void @__cxa_rethrow()

declare void @__cxa_end_catch()

; Function Attrs: mustprogress noinline nounwind optnone uwtable
define linkonce_odr dso_local noundef i64 @_ZNKSt6vectorISt6threadSaIS0_EE8max_sizeEv(ptr noundef nonnull align 8 dereferenceable(24) %0) #4 comdat align 2 !dbg !3194 {
  %2 = alloca ptr, align 8
  store ptr %0, ptr %2, align 8
  call void @llvm.dbg.declare(metadata ptr %2, metadata !3195, metadata !DIExpression()), !dbg !3196
  %3 = load ptr, ptr %2, align 8
  %4 = call noundef nonnull align 1 dereferenceable(1) ptr @_ZNKSt12_Vector_baseISt6threadSaIS0_EE19_M_get_Tp_allocatorEv(ptr noundef nonnull align 8 dereferenceable(24) %3) #3, !dbg !3197
  %5 = call noundef i64 @_ZNSt6vectorISt6threadSaIS0_EE11_S_max_sizeERKS1_(ptr noundef nonnull align 1 dereferenceable(1) %4) #3, !dbg !3198
  ret i64 %5, !dbg !3199
}

; Function Attrs: mustprogress noinline nounwind optnone uwtable
define linkonce_odr dso_local noundef i64 @_ZNKSt6vectorISt6threadSaIS0_EE4sizeEv(ptr noundef nonnull align 8 dereferenceable(24) %0) #4 comdat align 2 !dbg !3200 {
  %2 = alloca ptr, align 8
  store ptr %0, ptr %2, align 8
  call void @llvm.dbg.declare(metadata ptr %2, metadata !3201, metadata !DIExpression()), !dbg !3202
  %3 = load ptr, ptr %2, align 8
  %4 = getelementptr inbounds %"struct.std::_Vector_base", ptr %3, i32 0, i32 0, !dbg !3203
  %5 = getelementptr inbounds %"struct.std::_Vector_base<std::thread, std::allocator<std::thread>>::_Vector_impl_data", ptr %4, i32 0, i32 1, !dbg !3204
  %6 = load ptr, ptr %5, align 8, !dbg !3204
  %7 = getelementptr inbounds %"struct.std::_Vector_base", ptr %3, i32 0, i32 0, !dbg !3205
  %8 = getelementptr inbounds %"struct.std::_Vector_base<std::thread, std::allocator<std::thread>>::_Vector_impl_data", ptr %7, i32 0, i32 0, !dbg !3206
  %9 = load ptr, ptr %8, align 8, !dbg !3206
  %10 = ptrtoint ptr %6 to i64, !dbg !3207
  %11 = ptrtoint ptr %9 to i64, !dbg !3207
  %12 = sub i64 %10, %11, !dbg !3207
  %13 = sdiv exact i64 %12, 8, !dbg !3207
  ret i64 %13, !dbg !3208
}

; Function Attrs: noreturn
declare void @_ZSt20__throw_length_errorPKc(ptr noundef) #14

; Function Attrs: mustprogress noinline nounwind optnone uwtable
define linkonce_odr dso_local noundef nonnull align 8 dereferenceable(8) ptr @_ZSt3maxImERKT_S2_S2_(ptr noundef nonnull align 8 dereferenceable(8) %0, ptr noundef nonnull align 8 dereferenceable(8) %1) #4 comdat !dbg !3209 {
  %3 = alloca ptr, align 8
  %4 = alloca ptr, align 8
  %5 = alloca ptr, align 8
  store ptr %0, ptr %4, align 8
  call void @llvm.dbg.declare(metadata ptr %4, metadata !3217, metadata !DIExpression()), !dbg !3218
  store ptr %1, ptr %5, align 8
  call void @llvm.dbg.declare(metadata ptr %5, metadata !3219, metadata !DIExpression()), !dbg !3220
  %6 = load ptr, ptr %4, align 8, !dbg !3221
  %7 = load i64, ptr %6, align 8, !dbg !3221
  %8 = load ptr, ptr %5, align 8, !dbg !3223
  %9 = load i64, ptr %8, align 8, !dbg !3223
  %10 = icmp ult i64 %7, %9, !dbg !3224
  br i1 %10, label %11, label %13, !dbg !3225

11:                                               ; preds = %2
  %12 = load ptr, ptr %5, align 8, !dbg !3226
  store ptr %12, ptr %3, align 8, !dbg !3227
  br label %15, !dbg !3227

13:                                               ; preds = %2
  %14 = load ptr, ptr %4, align 8, !dbg !3228
  store ptr %14, ptr %3, align 8, !dbg !3229
  br label %15, !dbg !3229

15:                                               ; preds = %13, %11
  %16 = load ptr, ptr %3, align 8, !dbg !3230
  ret ptr %16, !dbg !3230
}

; Function Attrs: mustprogress noinline nounwind optnone uwtable
define linkonce_odr dso_local noundef i64 @_ZNSt6vectorISt6threadSaIS0_EE11_S_max_sizeERKS1_(ptr noundef nonnull align 1 dereferenceable(1) %0) #4 comdat align 2 personality ptr @__gxx_personality_v0 !dbg !3231 {
  %2 = alloca ptr, align 8
  %3 = alloca i64, align 8
  %4 = alloca i64, align 8
  store ptr %0, ptr %2, align 8
  call void @llvm.dbg.declare(metadata ptr %2, metadata !3232, metadata !DIExpression()), !dbg !3233
  call void @llvm.dbg.declare(metadata ptr %3, metadata !3234, metadata !DIExpression()), !dbg !3236
  store i64 1152921504606846975, ptr %3, align 8, !dbg !3236
  call void @llvm.dbg.declare(metadata ptr %4, metadata !3237, metadata !DIExpression()), !dbg !3238
  %5 = load ptr, ptr %2, align 8, !dbg !3239
  %6 = call noundef i64 @_ZNSt16allocator_traitsISaISt6threadEE8max_sizeERKS1_(ptr noundef nonnull align 1 dereferenceable(1) %5) #3, !dbg !3240
  store i64 %6, ptr %4, align 8, !dbg !3238
  %7 = invoke noundef nonnull align 8 dereferenceable(8) ptr @_ZSt3minImERKT_S2_S2_(ptr noundef nonnull align 8 dereferenceable(8) %3, ptr noundef nonnull align 8 dereferenceable(8) %4)
          to label %8 unwind label %10, !dbg !3241

8:                                                ; preds = %1
  %9 = load i64, ptr %7, align 8, !dbg !3241
  ret i64 %9, !dbg !3242

10:                                               ; preds = %1
  %11 = landingpad { ptr, i32 }
          catch ptr null, !dbg !3241
  %12 = extractvalue { ptr, i32 } %11, 0, !dbg !3241
  call void @__clang_call_terminate(ptr %12) #15, !dbg !3241
  unreachable, !dbg !3241
}

; Function Attrs: mustprogress noinline nounwind optnone uwtable
define linkonce_odr dso_local noundef nonnull align 1 dereferenceable(1) ptr @_ZNKSt12_Vector_baseISt6threadSaIS0_EE19_M_get_Tp_allocatorEv(ptr noundef nonnull align 8 dereferenceable(24) %0) #4 comdat align 2 !dbg !3243 {
  %2 = alloca ptr, align 8
  store ptr %0, ptr %2, align 8
  call void @llvm.dbg.declare(metadata ptr %2, metadata !3244, metadata !DIExpression()), !dbg !3246
  %3 = load ptr, ptr %2, align 8
  %4 = getelementptr inbounds %"struct.std::_Vector_base", ptr %3, i32 0, i32 0, !dbg !3247
  ret ptr %4, !dbg !3248
}

; Function Attrs: mustprogress noinline nounwind optnone uwtable
define linkonce_odr dso_local noundef i64 @_ZNSt16allocator_traitsISaISt6threadEE8max_sizeERKS1_(ptr noundef nonnull align 1 dereferenceable(1) %0) #4 comdat align 2 !dbg !3249 {
  %2 = alloca ptr, align 8
  store ptr %0, ptr %2, align 8
  call void @llvm.dbg.declare(metadata ptr %2, metadata !3250, metadata !DIExpression()), !dbg !3251
  %3 = load ptr, ptr %2, align 8, !dbg !3252
  %4 = call noundef i64 @_ZNK9__gnu_cxx13new_allocatorISt6threadE8max_sizeEv(ptr noundef nonnull align 1 dereferenceable(1) %3) #3, !dbg !3253
  ret i64 %4, !dbg !3254
}

; Function Attrs: mustprogress noinline nounwind optnone uwtable
define linkonce_odr dso_local noundef nonnull align 8 dereferenceable(8) ptr @_ZSt3minImERKT_S2_S2_(ptr noundef nonnull align 8 dereferenceable(8) %0, ptr noundef nonnull align 8 dereferenceable(8) %1) #4 comdat !dbg !3255 {
  %3 = alloca ptr, align 8
  %4 = alloca ptr, align 8
  %5 = alloca ptr, align 8
  store ptr %0, ptr %4, align 8
  call void @llvm.dbg.declare(metadata ptr %4, metadata !3256, metadata !DIExpression()), !dbg !3257
  store ptr %1, ptr %5, align 8
  call void @llvm.dbg.declare(metadata ptr %5, metadata !3258, metadata !DIExpression()), !dbg !3259
  %6 = load ptr, ptr %5, align 8, !dbg !3260
  %7 = load i64, ptr %6, align 8, !dbg !3260
  %8 = load ptr, ptr %4, align 8, !dbg !3262
  %9 = load i64, ptr %8, align 8, !dbg !3262
  %10 = icmp ult i64 %7, %9, !dbg !3263
  br i1 %10, label %11, label %13, !dbg !3264

11:                                               ; preds = %2
  %12 = load ptr, ptr %5, align 8, !dbg !3265
  store ptr %12, ptr %3, align 8, !dbg !3266
  br label %15, !dbg !3266

13:                                               ; preds = %2
  %14 = load ptr, ptr %4, align 8, !dbg !3267
  store ptr %14, ptr %3, align 8, !dbg !3268
  br label %15, !dbg !3268

15:                                               ; preds = %13, %11
  %16 = load ptr, ptr %3, align 8, !dbg !3269
  ret ptr %16, !dbg !3269
}

; Function Attrs: mustprogress noinline nounwind optnone uwtable
define linkonce_odr dso_local noundef i64 @_ZNK9__gnu_cxx13new_allocatorISt6threadE8max_sizeEv(ptr noundef nonnull align 1 dereferenceable(1) %0) #4 comdat align 2 !dbg !3270 {
  %2 = alloca ptr, align 8
  store ptr %0, ptr %2, align 8
  call void @llvm.dbg.declare(metadata ptr %2, metadata !3271, metadata !DIExpression()), !dbg !3273
  %3 = load ptr, ptr %2, align 8
  ret i64 1152921504606846975, !dbg !3274
}

; Function Attrs: mustprogress noinline optnone uwtable
define linkonce_odr dso_local noundef ptr @_ZNSt16allocator_traitsISaISt6threadEE8allocateERS1_m(ptr noundef nonnull align 1 dereferenceable(1) %0, i64 noundef %1) #8 comdat align 2 !dbg !3275 {
  %3 = alloca ptr, align 8
  %4 = alloca i64, align 8
  store ptr %0, ptr %3, align 8
  call void @llvm.dbg.declare(metadata ptr %3, metadata !3276, metadata !DIExpression()), !dbg !3277
  store i64 %1, ptr %4, align 8
  call void @llvm.dbg.declare(metadata ptr %4, metadata !3278, metadata !DIExpression()), !dbg !3279
  %5 = load ptr, ptr %3, align 8, !dbg !3280
  %6 = load i64, ptr %4, align 8, !dbg !3281
  %7 = call noundef ptr @_ZN9__gnu_cxx13new_allocatorISt6threadE8allocateEmPKv(ptr noundef nonnull align 1 dereferenceable(1) %5, i64 noundef %6, ptr noundef null), !dbg !3282
  ret ptr %7, !dbg !3283
}

; Function Attrs: mustprogress noinline optnone uwtable
define linkonce_odr dso_local noundef ptr @_ZN9__gnu_cxx13new_allocatorISt6threadE8allocateEmPKv(ptr noundef nonnull align 1 dereferenceable(1) %0, i64 noundef %1, ptr noundef %2) #8 comdat align 2 !dbg !3284 {
  %4 = alloca ptr, align 8
  %5 = alloca i64, align 8
  %6 = alloca ptr, align 8
  store ptr %0, ptr %4, align 8
  call void @llvm.dbg.declare(metadata ptr %4, metadata !3285, metadata !DIExpression()), !dbg !3286
  store i64 %1, ptr %5, align 8
  call void @llvm.dbg.declare(metadata ptr %5, metadata !3287, metadata !DIExpression()), !dbg !3288
  store ptr %2, ptr %6, align 8
  call void @llvm.dbg.declare(metadata ptr %6, metadata !3289, metadata !DIExpression()), !dbg !3290
  %7 = load ptr, ptr %4, align 8
  %8 = load i64, ptr %5, align 8, !dbg !3291
  %9 = call noundef i64 @_ZNK9__gnu_cxx13new_allocatorISt6threadE8max_sizeEv(ptr noundef nonnull align 1 dereferenceable(1) %7) #3, !dbg !3293
  %10 = icmp ugt i64 %8, %9, !dbg !3294
  br i1 %10, label %11, label %12, !dbg !3295

11:                                               ; preds = %3
  call void @_ZSt17__throw_bad_allocv() #16, !dbg !3296
  unreachable, !dbg !3296

12:                                               ; preds = %3
  %13 = load i64, ptr %5, align 8, !dbg !3297
  %14 = mul i64 %13, 8, !dbg !3298
  %15 = call noalias noundef nonnull ptr @_Znwm(i64 noundef %14) #19, !dbg !3299
  ret ptr %15, !dbg !3300
}

; Function Attrs: noreturn
declare void @_ZSt17__throw_bad_allocv() #14

; Function Attrs: mustprogress noinline nounwind optnone uwtable
define linkonce_odr dso_local noundef ptr @_ZNSt6vectorISt6threadSaIS0_EE14_S_do_relocateEPS0_S3_S3_RS1_St17integral_constantIbLb1EE(ptr noundef %0, ptr noundef %1, ptr noundef %2, ptr noundef nonnull align 1 dereferenceable(1) %3) #4 comdat align 2 !dbg !3301 {
  %5 = alloca %"struct.std::integral_constant", align 1
  %6 = alloca ptr, align 8
  %7 = alloca ptr, align 8
  %8 = alloca ptr, align 8
  %9 = alloca ptr, align 8
  store ptr %0, ptr %6, align 8
  call void @llvm.dbg.declare(metadata ptr %6, metadata !3302, metadata !DIExpression()), !dbg !3303
  store ptr %1, ptr %7, align 8
  call void @llvm.dbg.declare(metadata ptr %7, metadata !3304, metadata !DIExpression()), !dbg !3305
  store ptr %2, ptr %8, align 8
  call void @llvm.dbg.declare(metadata ptr %8, metadata !3306, metadata !DIExpression()), !dbg !3307
  store ptr %3, ptr %9, align 8
  call void @llvm.dbg.declare(metadata ptr %9, metadata !3308, metadata !DIExpression()), !dbg !3309
  call void @llvm.dbg.declare(metadata ptr %5, metadata !3310, metadata !DIExpression()), !dbg !3311
  %10 = load ptr, ptr %6, align 8, !dbg !3312
  %11 = load ptr, ptr %7, align 8, !dbg !3313
  %12 = load ptr, ptr %8, align 8, !dbg !3314
  %13 = load ptr, ptr %9, align 8, !dbg !3315
  %14 = call noundef ptr @_ZSt12__relocate_aIPSt6threadS1_SaIS0_EET0_T_S4_S3_RT1_(ptr noundef %10, ptr noundef %11, ptr noundef %12, ptr noundef nonnull align 1 dereferenceable(1) %13) #3, !dbg !3316
  ret ptr %14, !dbg !3317
}

; Function Attrs: mustprogress noinline nounwind optnone uwtable
define linkonce_odr dso_local noundef ptr @_ZSt12__relocate_aIPSt6threadS1_SaIS0_EET0_T_S4_S3_RT1_(ptr noundef %0, ptr noundef %1, ptr noundef %2, ptr noundef nonnull align 1 dereferenceable(1) %3) #4 comdat !dbg !3318 {
  %5 = alloca ptr, align 8
  %6 = alloca ptr, align 8
  %7 = alloca ptr, align 8
  %8 = alloca ptr, align 8
  store ptr %0, ptr %5, align 8
  call void @llvm.dbg.declare(metadata ptr %5, metadata !3325, metadata !DIExpression()), !dbg !3326
  store ptr %1, ptr %6, align 8
  call void @llvm.dbg.declare(metadata ptr %6, metadata !3327, metadata !DIExpression()), !dbg !3328
  store ptr %2, ptr %7, align 8
  call void @llvm.dbg.declare(metadata ptr %7, metadata !3329, metadata !DIExpression()), !dbg !3330
  store ptr %3, ptr %8, align 8
  call void @llvm.dbg.declare(metadata ptr %8, metadata !3331, metadata !DIExpression()), !dbg !3332
  %9 = load ptr, ptr %5, align 8, !dbg !3333
  %10 = call noundef ptr @_ZSt12__niter_baseIPSt6threadET_S2_(ptr noundef %9) #3, !dbg !3334
  %11 = load ptr, ptr %6, align 8, !dbg !3335
  %12 = call noundef ptr @_ZSt12__niter_baseIPSt6threadET_S2_(ptr noundef %11) #3, !dbg !3336
  %13 = load ptr, ptr %7, align 8, !dbg !3337
  %14 = call noundef ptr @_ZSt12__niter_baseIPSt6threadET_S2_(ptr noundef %13) #3, !dbg !3338
  %15 = load ptr, ptr %8, align 8, !dbg !3339
  %16 = call noundef ptr @_ZSt14__relocate_a_1IPSt6threadS1_SaIS0_EET0_T_S4_S3_RT1_(ptr noundef %10, ptr noundef %12, ptr noundef %14, ptr noundef nonnull align 1 dereferenceable(1) %15) #3, !dbg !3340
  ret ptr %16, !dbg !3341
}

; Function Attrs: mustprogress noinline nounwind optnone uwtable
define linkonce_odr dso_local noundef ptr @_ZSt14__relocate_a_1IPSt6threadS1_SaIS0_EET0_T_S4_S3_RT1_(ptr noundef %0, ptr noundef %1, ptr noundef %2, ptr noundef nonnull align 1 dereferenceable(1) %3) #4 comdat !dbg !3342 {
  %5 = alloca ptr, align 8
  %6 = alloca ptr, align 8
  %7 = alloca ptr, align 8
  %8 = alloca ptr, align 8
  %9 = alloca ptr, align 8
  store ptr %0, ptr %5, align 8
  call void @llvm.dbg.declare(metadata ptr %5, metadata !3343, metadata !DIExpression()), !dbg !3344
  store ptr %1, ptr %6, align 8
  call void @llvm.dbg.declare(metadata ptr %6, metadata !3345, metadata !DIExpression()), !dbg !3346
  store ptr %2, ptr %7, align 8
  call void @llvm.dbg.declare(metadata ptr %7, metadata !3347, metadata !DIExpression()), !dbg !3348
  store ptr %3, ptr %8, align 8
  call void @llvm.dbg.declare(metadata ptr %8, metadata !3349, metadata !DIExpression()), !dbg !3350
  call void @llvm.dbg.declare(metadata ptr %9, metadata !3351, metadata !DIExpression()), !dbg !3352
  %10 = load ptr, ptr %7, align 8, !dbg !3353
  store ptr %10, ptr %9, align 8, !dbg !3352
  br label %11, !dbg !3354

11:                                               ; preds = %19, %4
  %12 = load ptr, ptr %5, align 8, !dbg !3355
  %13 = load ptr, ptr %6, align 8, !dbg !3358
  %14 = icmp ne ptr %12, %13, !dbg !3359
  br i1 %14, label %15, label %24, !dbg !3360

15:                                               ; preds = %11
  %16 = load ptr, ptr %9, align 8, !dbg !3361
  %17 = load ptr, ptr %5, align 8, !dbg !3362
  %18 = load ptr, ptr %8, align 8, !dbg !3363
  call void @_ZSt19__relocate_object_aISt6threadS0_SaIS0_EEvPT_PT0_RT1_(ptr noundef %16, ptr noundef %17, ptr noundef nonnull align 1 dereferenceable(1) %18) #3, !dbg !3364
  br label %19, !dbg !3364

19:                                               ; preds = %15
  %20 = load ptr, ptr %5, align 8, !dbg !3365
  %21 = getelementptr inbounds %"class.std::thread", ptr %20, i32 1, !dbg !3365
  store ptr %21, ptr %5, align 8, !dbg !3365
  %22 = load ptr, ptr %9, align 8, !dbg !3366
  %23 = getelementptr inbounds %"class.std::thread", ptr %22, i32 1, !dbg !3366
  store ptr %23, ptr %9, align 8, !dbg !3366
  br label %11, !dbg !3367, !llvm.loop !3368

24:                                               ; preds = %11
  %25 = load ptr, ptr %9, align 8, !dbg !3370
  ret ptr %25, !dbg !3371
}

; Function Attrs: mustprogress noinline nounwind optnone uwtable
define linkonce_odr dso_local noundef ptr @_ZSt12__niter_baseIPSt6threadET_S2_(ptr noundef %0) #4 comdat !dbg !3372 {
  %2 = alloca ptr, align 8
  store ptr %0, ptr %2, align 8
  call void @llvm.dbg.declare(metadata ptr %2, metadata !3375, metadata !DIExpression()), !dbg !3376
  %3 = load ptr, ptr %2, align 8, !dbg !3377
  ret ptr %3, !dbg !3378
}

; Function Attrs: mustprogress noinline nounwind optnone uwtable
define linkonce_odr dso_local void @_ZSt19__relocate_object_aISt6threadS0_SaIS0_EEvPT_PT0_RT1_(ptr noundef %0, ptr noundef %1, ptr noundef nonnull align 1 dereferenceable(1) %2) #4 comdat !dbg !3379 {
  %4 = alloca ptr, align 8
  %5 = alloca ptr, align 8
  %6 = alloca ptr, align 8
  store ptr %0, ptr %4, align 8
  call void @llvm.dbg.declare(metadata ptr %4, metadata !3381, metadata !DIExpression()), !dbg !3382
  store ptr %1, ptr %5, align 8
  call void @llvm.dbg.declare(metadata ptr %5, metadata !3383, metadata !DIExpression()), !dbg !3384
  store ptr %2, ptr %6, align 8
  call void @llvm.dbg.declare(metadata ptr %6, metadata !3385, metadata !DIExpression()), !dbg !3386
  %7 = load ptr, ptr %6, align 8, !dbg !3387
  %8 = load ptr, ptr %4, align 8, !dbg !3388
  %9 = load ptr, ptr %5, align 8, !dbg !3389
  call void @_ZNSt16allocator_traitsISaISt6threadEE9constructIS0_JS0_EEEvRS1_PT_DpOT0_(ptr noundef nonnull align 1 dereferenceable(1) %7, ptr noundef %8, ptr noundef nonnull align 8 dereferenceable(8) %9) #3, !dbg !3390
  %10 = load ptr, ptr %6, align 8, !dbg !3391
  %11 = load ptr, ptr %5, align 8, !dbg !3392
  call void @_ZNSt16allocator_traitsISaISt6threadEE7destroyIS0_EEvRS1_PT_(ptr noundef nonnull align 1 dereferenceable(1) %10, ptr noundef %11) #3, !dbg !3393
  ret void, !dbg !3394
}

; Function Attrs: mustprogress noinline nounwind optnone uwtable
define linkonce_odr dso_local void @_ZNSt16allocator_traitsISaISt6threadEE9constructIS0_JS0_EEEvRS1_PT_DpOT0_(ptr noundef nonnull align 1 dereferenceable(1) %0, ptr noundef %1, ptr noundef nonnull align 8 dereferenceable(8) %2) #4 comdat align 2 !dbg !3395 {
  %4 = alloca ptr, align 8
  %5 = alloca ptr, align 8
  %6 = alloca ptr, align 8
  store ptr %0, ptr %4, align 8
  call void @llvm.dbg.declare(metadata ptr %4, metadata !3403, metadata !DIExpression()), !dbg !3404
  store ptr %1, ptr %5, align 8
  call void @llvm.dbg.declare(metadata ptr %5, metadata !3405, metadata !DIExpression()), !dbg !3406
  store ptr %2, ptr %6, align 8
  call void @llvm.dbg.declare(metadata ptr %6, metadata !3407, metadata !DIExpression()), !dbg !3408
  %7 = load ptr, ptr %4, align 8, !dbg !3409
  %8 = load ptr, ptr %5, align 8, !dbg !3410
  %9 = load ptr, ptr %6, align 8, !dbg !3411
  call void @_ZN9__gnu_cxx13new_allocatorISt6threadE9constructIS1_JS1_EEEvPT_DpOT0_(ptr noundef nonnull align 1 dereferenceable(1) %7, ptr noundef %8, ptr noundef nonnull align 8 dereferenceable(8) %9) #3, !dbg !3412
  ret void, !dbg !3413
}

; Function Attrs: mustprogress noinline nounwind optnone uwtable
define linkonce_odr dso_local void @_ZN9__gnu_cxx13new_allocatorISt6threadE9constructIS1_JS1_EEEvPT_DpOT0_(ptr noundef nonnull align 1 dereferenceable(1) %0, ptr noundef %1, ptr noundef nonnull align 8 dereferenceable(8) %2) #4 comdat align 2 !dbg !3414 {
  %4 = alloca ptr, align 8
  %5 = alloca ptr, align 8
  %6 = alloca ptr, align 8
  store ptr %0, ptr %4, align 8
  call void @llvm.dbg.declare(metadata ptr %4, metadata !3418, metadata !DIExpression()), !dbg !3419
  store ptr %1, ptr %5, align 8
  call void @llvm.dbg.declare(metadata ptr %5, metadata !3420, metadata !DIExpression()), !dbg !3421
  store ptr %2, ptr %6, align 8
  call void @llvm.dbg.declare(metadata ptr %6, metadata !3422, metadata !DIExpression()), !dbg !3423
  %7 = load ptr, ptr %4, align 8
  %8 = load ptr, ptr %5, align 8, !dbg !3424
  %9 = load ptr, ptr %6, align 8, !dbg !3425
  call void @_ZNSt6threadC2EOS_(ptr noundef nonnull align 8 dereferenceable(8) %8, ptr noundef nonnull align 8 dereferenceable(8) %9) #3, !dbg !3426
  ret void, !dbg !3427
}

; Function Attrs: noinline nounwind optnone uwtable
define linkonce_odr dso_local void @_ZNSt6threadC2EOS_(ptr noundef nonnull align 8 dereferenceable(8) %0, ptr noundef nonnull align 8 dereferenceable(8) %1) unnamed_addr #7 comdat align 2 !dbg !3428 {
  %3 = alloca ptr, align 8
  %4 = alloca ptr, align 8
  store ptr %0, ptr %3, align 8
  call void @llvm.dbg.declare(metadata ptr %3, metadata !3429, metadata !DIExpression()), !dbg !3430
  store ptr %1, ptr %4, align 8
  call void @llvm.dbg.declare(metadata ptr %4, metadata !3431, metadata !DIExpression()), !dbg !3432
  %5 = load ptr, ptr %3, align 8
  %6 = getelementptr inbounds %"class.std::thread", ptr %5, i32 0, i32 0, !dbg !3433
  call void @_ZNSt6thread2idC2Ev(ptr noundef nonnull align 8 dereferenceable(8) %6) #3, !dbg !3433
  %7 = load ptr, ptr %4, align 8, !dbg !3434
  call void @_ZNSt6thread4swapERS_(ptr noundef nonnull align 8 dereferenceable(8) %5, ptr noundef nonnull align 8 dereferenceable(8) %7) #3, !dbg !3436
  ret void, !dbg !3437
}

; Function Attrs: mustprogress noinline nounwind optnone uwtable
define linkonce_odr dso_local void @_ZNSt6thread4swapERS_(ptr noundef nonnull align 8 dereferenceable(8) %0, ptr noundef nonnull align 8 dereferenceable(8) %1) #4 comdat align 2 !dbg !3438 {
  %3 = alloca ptr, align 8
  %4 = alloca ptr, align 8
  store ptr %0, ptr %3, align 8
  call void @llvm.dbg.declare(metadata ptr %3, metadata !3439, metadata !DIExpression()), !dbg !3440
  store ptr %1, ptr %4, align 8
  call void @llvm.dbg.declare(metadata ptr %4, metadata !3441, metadata !DIExpression()), !dbg !3442
  %5 = load ptr, ptr %3, align 8
  %6 = getelementptr inbounds %"class.std::thread", ptr %5, i32 0, i32 0, !dbg !3443
  %7 = load ptr, ptr %4, align 8, !dbg !3444
  %8 = getelementptr inbounds %"class.std::thread", ptr %7, i32 0, i32 0, !dbg !3445
  call void @_ZSt4swapINSt6thread2idEENSt9enable_ifIXsr6__and_ISt6__not_ISt15__is_tuple_likeIT_EESt21is_move_constructibleIS5_ESt18is_move_assignableIS5_EEE5valueEvE4typeERS5_SE_(ptr noundef nonnull align 8 dereferenceable(8) %6, ptr noundef nonnull align 8 dereferenceable(8) %8) #3, !dbg !3446
  ret void, !dbg !3447
}

; Function Attrs: mustprogress noinline nounwind optnone uwtable
define linkonce_odr dso_local void @_ZSt4swapINSt6thread2idEENSt9enable_ifIXsr6__and_ISt6__not_ISt15__is_tuple_likeIT_EESt21is_move_constructibleIS5_ESt18is_move_assignableIS5_EEE5valueEvE4typeERS5_SE_(ptr noundef nonnull align 8 dereferenceable(8) %0, ptr noundef nonnull align 8 dereferenceable(8) %1) #4 comdat !dbg !3448 {
  %3 = alloca ptr, align 8
  %4 = alloca ptr, align 8
  %5 = alloca %"class.std::thread::id", align 8
  store ptr %0, ptr %3, align 8
  call void @llvm.dbg.declare(metadata ptr %3, metadata !3459, metadata !DIExpression()), !dbg !3460
  store ptr %1, ptr %4, align 8
  call void @llvm.dbg.declare(metadata ptr %4, metadata !3461, metadata !DIExpression()), !dbg !3462
  call void @llvm.dbg.declare(metadata ptr %5, metadata !3463, metadata !DIExpression()), !dbg !3464
  %6 = load ptr, ptr %3, align 8, !dbg !3465
  call void @llvm.memcpy.p0.p0.i64(ptr align 8 %5, ptr align 8 %6, i64 8, i1 false), !dbg !3465
  %7 = load ptr, ptr %4, align 8, !dbg !3466
  %8 = load ptr, ptr %3, align 8, !dbg !3467
  call void @llvm.memcpy.p0.p0.i64(ptr align 8 %8, ptr align 8 %7, i64 8, i1 false), !dbg !3468
  %9 = load ptr, ptr %4, align 8, !dbg !3469
  call void @llvm.memcpy.p0.p0.i64(ptr align 8 %9, ptr align 8 %5, i64 8, i1 false), !dbg !3470
  ret void, !dbg !3471
}

; Function Attrs: mustprogress noinline nounwind optnone uwtable
define linkonce_odr dso_local void @_ZN9__gnu_cxx13new_allocatorISt6threadE7destroyIS1_EEvPT_(ptr noundef nonnull align 1 dereferenceable(1) %0, ptr noundef %1) #4 comdat align 2 !dbg !3472 {
  %3 = alloca ptr, align 8
  %4 = alloca ptr, align 8
  store ptr %0, ptr %3, align 8
  call void @llvm.dbg.declare(metadata ptr %3, metadata !3476, metadata !DIExpression()), !dbg !3477
  store ptr %1, ptr %4, align 8
  call void @llvm.dbg.declare(metadata ptr %4, metadata !3478, metadata !DIExpression()), !dbg !3479
  %5 = load ptr, ptr %3, align 8
  %6 = load ptr, ptr %4, align 8, !dbg !3480
  call void @_ZNSt6threadD2Ev(ptr noundef nonnull align 8 dereferenceable(8) %6) #3, !dbg !3481
  ret void, !dbg !3482
}

; Function Attrs: noinline nounwind optnone uwtable
define linkonce_odr dso_local void @_ZN9__gnu_cxx17__normal_iteratorIPSt6threadSt6vectorIS1_SaIS1_EEEC2ERKS2_(ptr noundef nonnull align 8 dereferenceable(8) %0, ptr noundef nonnull align 8 dereferenceable(8) %1) unnamed_addr #7 comdat align 2 !dbg !3483 {
  %3 = alloca ptr, align 8
  %4 = alloca ptr, align 8
  store ptr %0, ptr %3, align 8
  call void @llvm.dbg.declare(metadata ptr %3, metadata !3484, metadata !DIExpression()), !dbg !3485
  store ptr %1, ptr %4, align 8
  call void @llvm.dbg.declare(metadata ptr %4, metadata !3486, metadata !DIExpression()), !dbg !3487
  %5 = load ptr, ptr %3, align 8
  %6 = getelementptr inbounds %"class.__gnu_cxx::__normal_iterator", ptr %5, i32 0, i32 0, !dbg !3488
  %7 = load ptr, ptr %4, align 8, !dbg !3489
  %8 = load ptr, ptr %7, align 8, !dbg !3489
  store ptr %8, ptr %6, align 8, !dbg !3488
  ret void, !dbg !3490
}

; Function Attrs: mustprogress noinline nounwind optnone uwtable
define linkonce_odr dso_local noundef i32 @_ZStanSt12memory_orderSt23__memory_order_modifier(i32 noundef %0, i32 noundef %1) #4 comdat !dbg !3491 {
  %3 = alloca i32, align 4
  %4 = alloca i32, align 4
  store i32 %0, ptr %3, align 4
  call void @llvm.dbg.declare(metadata ptr %3, metadata !3494, metadata !DIExpression()), !dbg !3495
  store i32 %1, ptr %4, align 4
  call void @llvm.dbg.declare(metadata ptr %4, metadata !3496, metadata !DIExpression()), !dbg !3497
  %5 = load i32, ptr %3, align 4, !dbg !3498
  %6 = load i32, ptr %4, align 4, !dbg !3499
  %7 = and i32 %5, %6, !dbg !3500
  ret i32 %7, !dbg !3501
}

; Function Attrs: noinline uwtable
define internal void @_GLOBAL__sub_I_test.cpp() #0 section ".text.startup" !dbg !3502 {
  call void @__cxx_global_var_init(), !dbg !3504
  ret void
}

attributes #0 = { noinline uwtable "frame-pointer"="all" "min-legal-vector-width"="0" "no-trapping-math"="true" "stack-protector-buffer-size"="8" "target-cpu"="x86-64" "target-features"="+cmov,+cx8,+fxsr,+mmx,+sse,+sse2,+x87" "tune-cpu"="generic" }
attributes #1 = { "frame-pointer"="all" "no-trapping-math"="true" "stack-protector-buffer-size"="8" "target-cpu"="x86-64" "target-features"="+cmov,+cx8,+fxsr,+mmx,+sse,+sse2,+x87" "tune-cpu"="generic" }
attributes #2 = { nounwind "frame-pointer"="all" "no-trapping-math"="true" "stack-protector-buffer-size"="8" "target-cpu"="x86-64" "target-features"="+cmov,+cx8,+fxsr,+mmx,+sse,+sse2,+x87" "tune-cpu"="generic" }
attributes #3 = { nounwind }
attributes #4 = { mustprogress noinline nounwind optnone uwtable "frame-pointer"="all" "min-legal-vector-width"="0" "no-trapping-math"="true" "stack-protector-buffer-size"="8" "target-cpu"="x86-64" "target-features"="+cmov,+cx8,+fxsr,+mmx,+sse,+sse2,+x87" "tune-cpu"="generic" }
attributes #5 = { nocallback nofree nosync nounwind speculatable willreturn memory(none) }
attributes #6 = { mustprogress noinline norecurse optnone uwtable "frame-pointer"="all" "min-legal-vector-width"="0" "no-trapping-math"="true" "stack-protector-buffer-size"="8" "target-cpu"="x86-64" "target-features"="+cmov,+cx8,+fxsr,+mmx,+sse,+sse2,+x87" "tune-cpu"="generic" }
attributes #7 = { noinline nounwind optnone uwtable "frame-pointer"="all" "min-legal-vector-width"="0" "no-trapping-math"="true" "stack-protector-buffer-size"="8" "target-cpu"="x86-64" "target-features"="+cmov,+cx8,+fxsr,+mmx,+sse,+sse2,+x87" "tune-cpu"="generic" }
attributes #8 = { mustprogress noinline optnone uwtable "frame-pointer"="all" "min-legal-vector-width"="0" "no-trapping-math"="true" "stack-protector-buffer-size"="8" "target-cpu"="x86-64" "target-features"="+cmov,+cx8,+fxsr,+mmx,+sse,+sse2,+x87" "tune-cpu"="generic" }
attributes #9 = { noinline noreturn nounwind uwtable "frame-pointer"="all" "no-trapping-math"="true" "stack-protector-buffer-size"="8" "target-cpu"="x86-64" "target-features"="+cmov,+cx8,+fxsr,+mmx,+sse,+sse2,+x87" "tune-cpu"="generic" }
attributes #10 = { nocallback nofree nounwind willreturn memory(argmem: readwrite) }
attributes #11 = { nobuiltin nounwind "frame-pointer"="all" "no-trapping-math"="true" "stack-protector-buffer-size"="8" "target-cpu"="x86-64" "target-features"="+cmov,+cx8,+fxsr,+mmx,+sse,+sse2,+x87" "tune-cpu"="generic" }
attributes #12 = { noinline optnone uwtable "frame-pointer"="all" "min-legal-vector-width"="0" "no-trapping-math"="true" "stack-protector-buffer-size"="8" "target-cpu"="x86-64" "target-features"="+cmov,+cx8,+fxsr,+mmx,+sse,+sse2,+x87" "tune-cpu"="generic" }
attributes #13 = { nobuiltin allocsize(0) "frame-pointer"="all" "no-trapping-math"="true" "stack-protector-buffer-size"="8" "target-cpu"="x86-64" "target-features"="+cmov,+cx8,+fxsr,+mmx,+sse,+sse2,+x87" "tune-cpu"="generic" }
attributes #14 = { noreturn "frame-pointer"="all" "no-trapping-math"="true" "stack-protector-buffer-size"="8" "target-cpu"="x86-64" "target-features"="+cmov,+cx8,+fxsr,+mmx,+sse,+sse2,+x87" "tune-cpu"="generic" }
attributes #15 = { noreturn nounwind }
attributes #16 = { noreturn }
attributes #17 = { builtin allocsize(0) }
attributes #18 = { builtin nounwind }
attributes #19 = { allocsize(0) }

!llvm.dbg.cu = !{!9}
!llvm.module.flags = !{!2153, !2154, !2155, !2156, !2157, !2158, !2159}
!llvm.ident = !{!2160}

!0 = !DIGlobalVariableExpression(var: !1, expr: !DIExpression())
!1 = distinct !DIGlobalVariable(name: "__ioinit", linkageName: "_ZStL8__ioinit", scope: !2, file: !3, line: 74, type: !4, isLocal: true, isDefinition: true)
!2 = !DINamespace(name: "std", scope: null)
!3 = !DIFile(filename: "/usr/lib/gcc/x86_64-linux-gnu/9/../../../../include/c++/9/iostream", directory: "")
!4 = !DICompositeType(tag: DW_TAG_class_type, name: "Init", scope: !6, file: !5, line: 608, size: 8, flags: DIFlagFwdDecl | DIFlagNonTrivial, identifier: "_ZTSNSt8ios_base4InitE")
!5 = !DIFile(filename: "/usr/lib/gcc/x86_64-linux-gnu/9/../../../../include/c++/9/bits/ios_base.h", directory: "")
!6 = !DICompositeType(tag: DW_TAG_class_type, name: "ios_base", scope: !2, file: !5, line: 228, size: 1728, flags: DIFlagFwdDecl | DIFlagNonTrivial)
!7 = !DIGlobalVariableExpression(var: !8, expr: !DIExpression())
!8 = distinct !DIGlobalVariable(name: "cnt", scope: !9, file: !10, line: 6, type: !1119, isLocal: false, isDefinition: true)
!9 = distinct !DICompileUnit(language: DW_LANG_C_plus_plus_11, file: !10, producer: "clang version 17.0.0 (git@github.com:llvm/llvm-project.git 88bf774c565080e30e0a073676c316ab175303af)", isOptimized: false, runtimeVersion: 0, emissionKind: FullDebug, enums: !11, retainedTypes: !35, globals: !1259, imports: !1271, splitDebugInlining: false, nameTableKind: None)
!10 = !DIFile(filename: "test.cpp", directory: "/home/cs23mtech12010/CCM/CCMutator/llvm-project/llvm/lib/Transforms/AtomicRMW/test", checksumkind: CSK_MD5, checksum: "04088d85e616744c660fc559a04705aa")
!11 = !{!12, !20, !29}
!12 = !DICompositeType(tag: DW_TAG_enumeration_type, name: "_Lock_policy", scope: !14, file: !13, line: 49, baseType: !15, size: 32, elements: !16, identifier: "_ZTSN9__gnu_cxx12_Lock_policyE")
!13 = !DIFile(filename: "/usr/lib/gcc/x86_64-linux-gnu/9/../../../../include/c++/9/ext/concurrence.h", directory: "")
!14 = !DINamespace(name: "__gnu_cxx", scope: null)
!15 = !DIBasicType(name: "unsigned int", size: 32, encoding: DW_ATE_unsigned)
!16 = !{!17, !18, !19}
!17 = !DIEnumerator(name: "_S_single", value: 0, isUnsigned: true)
!18 = !DIEnumerator(name: "_S_mutex", value: 1, isUnsigned: true)
!19 = !DIEnumerator(name: "_S_atomic", value: 2, isUnsigned: true)
!20 = !DICompositeType(tag: DW_TAG_enumeration_type, name: "memory_order", scope: !2, file: !21, line: 73, baseType: !15, size: 32, elements: !22, identifier: "_ZTSSt12memory_order")
!21 = !DIFile(filename: "/usr/lib/gcc/x86_64-linux-gnu/9/../../../../include/c++/9/bits/atomic_base.h", directory: "")
!22 = !{!23, !24, !25, !26, !27, !28}
!23 = !DIEnumerator(name: "memory_order_relaxed", value: 0, isUnsigned: true)
!24 = !DIEnumerator(name: "memory_order_consume", value: 1, isUnsigned: true)
!25 = !DIEnumerator(name: "memory_order_acquire", value: 2, isUnsigned: true)
!26 = !DIEnumerator(name: "memory_order_release", value: 3, isUnsigned: true)
!27 = !DIEnumerator(name: "memory_order_acq_rel", value: 4, isUnsigned: true)
!28 = !DIEnumerator(name: "memory_order_seq_cst", value: 5, isUnsigned: true)
!29 = !DICompositeType(tag: DW_TAG_enumeration_type, name: "__memory_order_modifier", scope: !2, file: !21, line: 84, baseType: !15, size: 32, elements: !30, identifier: "_ZTSSt23__memory_order_modifier")
!30 = !{!31, !32, !33, !34}
!31 = !DIEnumerator(name: "__memory_order_mask", value: 65535, isUnsigned: true)
!32 = !DIEnumerator(name: "__memory_order_modifier_mask", value: 4294901760, isUnsigned: true)
!33 = !DIEnumerator(name: "__memory_order_hle_acquire", value: 65536, isUnsigned: true)
!34 = !DIEnumerator(name: "__memory_order_hle_release", value: 131072, isUnsigned: true)
!35 = !{!36, !37, !38, !41, !63, !65, !68, !70, !466, !790, !996, !997, !1119, !791, !468, !471, !474, !493, !499, !586, !75, !71, !154, !151, !189, !148, !253, !145, !141, !138, !134, !1148, !1182, !1218, !1250}
!36 = !DIBasicType(name: "int", size: 32, encoding: DW_ATE_signed)
!37 = !DIDerivedType(tag: DW_TAG_pointer_type, baseType: null, size: 64)
!38 = !DIDerivedType(tag: DW_TAG_pointer_type, baseType: !39, size: 64)
!39 = !DISubroutineType(types: !40)
!40 = !{null}
!41 = !DIDerivedType(tag: DW_TAG_typedef, name: "__tag", scope: !43, file: !42, line: 94, baseType: !56)
!42 = !DIFile(filename: "/usr/lib/gcc/x86_64-linux-gnu/9/../../../../include/c++/9/bits/invoke.h", directory: "")
!43 = distinct !DISubprogram(name: "__invoke<void (*)()>", linkageName: "_ZSt8__invokeIPFvvEJEENSt15__invoke_resultIT_JDpT0_EE4typeEOS3_DpOS4_", scope: !2, file: !42, line: 89, type: !44, scopeLine: 91, flags: DIFlagPrototyped, spFlags: DISPFlagDefinition, unit: !9, templateParams: !53, retainedNodes: !49)
!44 = !DISubroutineType(types: !45)
!45 = !{!46, !52}
!46 = !DIDerivedType(tag: DW_TAG_typedef, name: "type", scope: !48, file: !47, line: 187, baseType: null)
!47 = !DIFile(filename: "/usr/lib/gcc/x86_64-linux-gnu/9/../../../../include/c++/9/type_traits", directory: "")
!48 = distinct !DICompositeType(tag: DW_TAG_structure_type, name: "__success_type<void>", scope: !2, file: !47, line: 186, size: 8, flags: DIFlagTypePassByValue, elements: !49, templateParams: !50, identifier: "_ZTSSt14__success_typeIvE")
!49 = !{}
!50 = !{!51}
!51 = !DITemplateTypeParameter(name: "_Tp", type: null)
!52 = !DIDerivedType(tag: DW_TAG_rvalue_reference_type, baseType: !38, size: 64)
!53 = !{!54, !55}
!54 = !DITemplateTypeParameter(name: "_Callable", type: !38)
!55 = !DITemplateValueParameter(tag: DW_TAG_GNU_template_parameter_pack, name: "_Args", value: !49)
!56 = !DIDerivedType(tag: DW_TAG_typedef, name: "__invoke_type", scope: !57, file: !47, line: 2183, baseType: !62)
!57 = distinct !DICompositeType(tag: DW_TAG_structure_type, name: "__result_of_success<void, std::__invoke_other>", scope: !2, file: !47, line: 2182, size: 8, flags: DIFlagTypePassByValue, elements: !58, templateParams: !60, identifier: "_ZTSSt19__result_of_successIvSt14__invoke_otherE")
!58 = !{!59}
!59 = !DIDerivedType(tag: DW_TAG_inheritance, scope: !57, baseType: !48, extraData: i32 0)
!60 = !{!51, !61}
!61 = !DITemplateTypeParameter(name: "_Tag", type: !62)
!62 = distinct !DICompositeType(tag: DW_TAG_structure_type, name: "__invoke_other", scope: !2, file: !47, line: 2178, size: 8, flags: DIFlagTypePassByValue, elements: !49, identifier: "_ZTSSt14__invoke_other")
!63 = !DIDerivedType(tag: DW_TAG_typedef, name: "size_type", file: !64, line: 421, baseType: !65, flags: DIFlagPublic)
!64 = !DIFile(filename: "/usr/lib/gcc/x86_64-linux-gnu/9/../../../../include/c++/9/bits/stl_vector.h", directory: "", checksumkind: CSK_MD5, checksum: "1f0977f00f361948b448c8d209ba1f18")
!65 = !DIDerivedType(tag: DW_TAG_typedef, name: "size_t", scope: !2, file: !66, line: 258, baseType: !67)
!66 = !DIFile(filename: "/usr/lib/gcc/x86_64-linux-gnu/9/../../../../include/x86_64-linux-gnu/c++/9/bits/c++config.h", directory: "", checksumkind: CSK_MD5, checksum: "f271377c6e7185560bbbc0bac2bc77fa")
!67 = !DIBasicType(name: "unsigned long", size: 64, encoding: DW_ATE_unsigned)
!68 = !DIDerivedType(tag: DW_TAG_pointer_type, baseType: !69, size: 64)
!69 = !DIDerivedType(tag: DW_TAG_const_type, baseType: null)
!70 = !DIDerivedType(tag: DW_TAG_pointer_type, baseType: !71, size: 64)
!71 = distinct !DICompositeType(tag: DW_TAG_class_type, name: "thread", scope: !2, file: !72, line: 62, size: 64, flags: DIFlagTypePassByReference | DIFlagNonTrivial, elements: !73, identifier: "_ZTSSt6thread")
!72 = !DIFile(filename: "/usr/lib/gcc/x86_64-linux-gnu/9/../../../../include/c++/9/thread", directory: "")
!73 = !{!74, !90, !94, !95, !100, !104, !108, !111, !114, !119, !120, !121, !124, !127, !130}
!74 = !DIDerivedType(tag: DW_TAG_member, name: "_M_id", scope: !71, file: !72, line: 103, baseType: !75, size: 64)
!75 = distinct !DICompositeType(tag: DW_TAG_class_type, name: "id", scope: !71, file: !72, line: 77, size: 64, flags: DIFlagPublic | DIFlagTypePassByValue | DIFlagNonTrivial, elements: !76, identifier: "_ZTSNSt6thread2idE")
!76 = !{!77, !83, !87}
!77 = !DIDerivedType(tag: DW_TAG_member, name: "_M_thread", scope: !75, file: !72, line: 79, baseType: !78, size: 64)
!78 = !DIDerivedType(tag: DW_TAG_typedef, name: "native_handle_type", scope: !71, file: !72, line: 74, baseType: !79, flags: DIFlagPublic)
!79 = !DIDerivedType(tag: DW_TAG_typedef, name: "__gthread_t", file: !80, line: 47, baseType: !81)
!80 = !DIFile(filename: "/usr/lib/gcc/x86_64-linux-gnu/9/../../../../include/x86_64-linux-gnu/c++/9/bits/gthr-default.h", directory: "", checksumkind: CSK_MD5, checksum: "253e44fcd2f3f0e77bbc192d0d6a84c4")
!81 = !DIDerivedType(tag: DW_TAG_typedef, name: "pthread_t", file: !82, line: 27, baseType: !67)
!82 = !DIFile(filename: "/usr/include/x86_64-linux-gnu/bits/pthreadtypes.h", directory: "", checksumkind: CSK_MD5, checksum: "2d764266ce95ab26d4a4767c2ec78176")
!83 = !DISubprogram(name: "id", scope: !75, file: !72, line: 82, type: !84, scopeLine: 82, flags: DIFlagPublic | DIFlagPrototyped, spFlags: 0)
!84 = !DISubroutineType(types: !85)
!85 = !{null, !86}
!86 = !DIDerivedType(tag: DW_TAG_pointer_type, baseType: !75, size: 64, flags: DIFlagArtificial | DIFlagObjectPointer)
!87 = !DISubprogram(name: "id", scope: !75, file: !72, line: 85, type: !88, scopeLine: 85, flags: DIFlagPublic | DIFlagExplicit | DIFlagPrototyped, spFlags: 0)
!88 = !DISubroutineType(types: !89)
!89 = !{null, !86, !78}
!90 = !DISubprogram(name: "thread", scope: !71, file: !72, line: 112, type: !91, scopeLine: 112, flags: DIFlagPublic | DIFlagPrototyped, spFlags: 0)
!91 = !DISubroutineType(types: !92)
!92 = !{null, !93}
!93 = !DIDerivedType(tag: DW_TAG_pointer_type, baseType: !71, size: 64, flags: DIFlagArtificial | DIFlagObjectPointer)
!94 = !DISubprogram(name: "~thread", scope: !71, file: !72, line: 136, type: !91, scopeLine: 136, flags: DIFlagPublic | DIFlagPrototyped, spFlags: 0)
!95 = !DISubprogram(name: "thread", scope: !71, file: !72, line: 142, type: !96, scopeLine: 142, flags: DIFlagPublic | DIFlagPrototyped, spFlags: DISPFlagDeleted)
!96 = !DISubroutineType(types: !97)
!97 = !{null, !93, !98}
!98 = !DIDerivedType(tag: DW_TAG_reference_type, baseType: !99, size: 64)
!99 = !DIDerivedType(tag: DW_TAG_const_type, baseType: !71)
!100 = !DISubprogram(name: "thread", scope: !71, file: !72, line: 144, type: !101, scopeLine: 144, flags: DIFlagPublic | DIFlagPrototyped, spFlags: 0)
!101 = !DISubroutineType(types: !102)
!102 = !{null, !93, !103}
!103 = !DIDerivedType(tag: DW_TAG_rvalue_reference_type, baseType: !71, size: 64)
!104 = !DISubprogram(name: "operator=", linkageName: "_ZNSt6threadaSERKS_", scope: !71, file: !72, line: 147, type: !105, scopeLine: 147, flags: DIFlagPublic | DIFlagPrototyped, spFlags: DISPFlagDeleted)
!105 = !DISubroutineType(types: !106)
!106 = !{!107, !93, !98}
!107 = !DIDerivedType(tag: DW_TAG_reference_type, baseType: !71, size: 64)
!108 = !DISubprogram(name: "operator=", linkageName: "_ZNSt6threadaSEOS_", scope: !71, file: !72, line: 149, type: !109, scopeLine: 149, flags: DIFlagPublic | DIFlagPrototyped, spFlags: 0)
!109 = !DISubroutineType(types: !110)
!110 = !{!107, !93, !103}
!111 = !DISubprogram(name: "swap", linkageName: "_ZNSt6thread4swapERS_", scope: !71, file: !72, line: 158, type: !112, scopeLine: 158, flags: DIFlagPublic | DIFlagPrototyped, spFlags: 0)
!112 = !DISubroutineType(types: !113)
!113 = !{null, !93, !107}
!114 = !DISubprogram(name: "joinable", linkageName: "_ZNKSt6thread8joinableEv", scope: !71, file: !72, line: 162, type: !115, scopeLine: 162, flags: DIFlagPublic | DIFlagPrototyped, spFlags: 0)
!115 = !DISubroutineType(types: !116)
!116 = !{!117, !118}
!117 = !DIBasicType(name: "bool", size: 8, encoding: DW_ATE_boolean)
!118 = !DIDerivedType(tag: DW_TAG_pointer_type, baseType: !99, size: 64, flags: DIFlagArtificial | DIFlagObjectPointer)
!119 = !DISubprogram(name: "join", linkageName: "_ZNSt6thread4joinEv", scope: !71, file: !72, line: 166, type: !91, scopeLine: 166, flags: DIFlagPublic | DIFlagPrototyped, spFlags: 0)
!120 = !DISubprogram(name: "detach", linkageName: "_ZNSt6thread6detachEv", scope: !71, file: !72, line: 169, type: !91, scopeLine: 169, flags: DIFlagPublic | DIFlagPrototyped, spFlags: 0)
!121 = !DISubprogram(name: "get_id", linkageName: "_ZNKSt6thread6get_idEv", scope: !71, file: !72, line: 172, type: !122, scopeLine: 172, flags: DIFlagPublic | DIFlagPrototyped, spFlags: 0)
!122 = !DISubroutineType(types: !123)
!123 = !{!75, !118}
!124 = !DISubprogram(name: "native_handle", linkageName: "_ZNSt6thread13native_handleEv", scope: !71, file: !72, line: 178, type: !125, scopeLine: 178, flags: DIFlagPublic | DIFlagPrototyped, spFlags: 0)
!125 = !DISubroutineType(types: !126)
!126 = !{!78, !93}
!127 = !DISubprogram(name: "hardware_concurrency", linkageName: "_ZNSt6thread20hardware_concurrencyEv", scope: !71, file: !72, line: 183, type: !128, scopeLine: 183, flags: DIFlagPublic | DIFlagPrototyped | DIFlagStaticMember, spFlags: 0)
!128 = !DISubroutineType(types: !129)
!129 = !{!15}
!130 = !DISubprogram(name: "_M_start_thread", linkageName: "_ZNSt6thread15_M_start_threadESt10unique_ptrINS_6_StateESt14default_deleteIS1_EEPFvvE", scope: !71, file: !72, line: 199, type: !131, scopeLine: 199, flags: DIFlagPrototyped, spFlags: 0)
!131 = !DISubroutineType(types: !132)
!132 = !{null, !93, !133, !38}
!133 = !DIDerivedType(tag: DW_TAG_typedef, name: "_State_ptr", scope: !71, file: !72, line: 72, baseType: !134, flags: DIFlagPublic)
!134 = distinct !DICompositeType(tag: DW_TAG_class_type, name: "unique_ptr<std::thread::_State, std::default_delete<std::thread::_State> >", scope: !2, file: !135, line: 172, size: 64, flags: DIFlagTypePassByReference | DIFlagNonTrivial, elements: !136, templateParams: !464, identifier: "_ZTSSt10unique_ptrINSt6thread6_StateESt14default_deleteIS1_EE")
!135 = !DIFile(filename: "/usr/lib/gcc/x86_64-linux-gnu/9/../../../../include/c++/9/bits/unique_ptr.h", directory: "", checksumkind: CSK_MD5, checksum: "72e397db6755d8096e32ba700f5c5576")
!136 = !{!137, !404, !409, !412, !416, !421, !430, !434, !435, !440, !445, !448, !451, !454, !457, !461}
!137 = !DIDerivedType(tag: DW_TAG_member, name: "_M_t", scope: !134, file: !135, line: 178, baseType: !138, size: 64)
!138 = distinct !DICompositeType(tag: DW_TAG_class_type, name: "__uniq_ptr_impl<std::thread::_State, std::default_delete<std::thread::_State> >", scope: !2, file: !135, line: 120, size: 64, flags: DIFlagTypePassByReference | DIFlagNonTrivial, elements: !139, templateParams: !402, identifier: "_ZTSSt15__uniq_ptr_implINSt6thread6_StateESt14default_deleteIS1_EE")
!139 = !{!140, !369, !373, !383, !387, !392, !395, !398}
!140 = !DIDerivedType(tag: DW_TAG_member, name: "_M_t", scope: !138, file: !135, line: 167, baseType: !141, size: 64)
!141 = distinct !DICompositeType(tag: DW_TAG_class_type, name: "tuple<std::thread::_State *, std::default_delete<std::thread::_State> >", scope: !2, file: !142, line: 893, size: 64, flags: DIFlagTypePassByReference | DIFlagNonTrivial, elements: !143, templateParams: !368, identifier: "_ZTSSt5tupleIJPNSt6thread6_StateESt14default_deleteIS1_EEE")
!142 = !DIFile(filename: "/usr/lib/gcc/x86_64-linux-gnu/9/../../../../include/c++/9/tuple", directory: "")
!143 = !{!144, !332, !338, !342, !356, !365}
!144 = !DIDerivedType(tag: DW_TAG_inheritance, scope: !141, baseType: !145, flags: DIFlagPublic, extraData: i32 0)
!145 = distinct !DICompositeType(tag: DW_TAG_structure_type, name: "_Tuple_impl<0UL, std::thread::_State *, std::default_delete<std::thread::_State> >", scope: !2, file: !142, line: 185, size: 64, flags: DIFlagTypePassByReference | DIFlagNonTrivial, elements: !146, templateParams: !328, identifier: "_ZTSSt11_Tuple_implILm0EJPNSt6thread6_StateESt14default_deleteIS1_EEE")
!146 = !{!147, !252, !289, !293, !298, !303, !308, !312, !315, !318, !321, !325}
!147 = !DIDerivedType(tag: DW_TAG_inheritance, scope: !145, baseType: !148, extraData: i32 0)
!148 = distinct !DICompositeType(tag: DW_TAG_structure_type, name: "_Tuple_impl<1UL, std::default_delete<std::thread::_State> >", scope: !2, file: !142, line: 326, size: 8, flags: DIFlagTypePassByReference | DIFlagNonTrivial, elements: !149, templateParams: !248, identifier: "_ZTSSt11_Tuple_implILm1EJSt14default_deleteINSt6thread6_StateEEEE")
!149 = !{!150, !219, !223, !228, !232, !235, !238, !241, !245}
!150 = !DIDerivedType(tag: DW_TAG_inheritance, scope: !148, baseType: !151, flags: DIFlagPrivate, extraData: i32 0)
!151 = distinct !DICompositeType(tag: DW_TAG_structure_type, name: "_Head_base<1UL, std::default_delete<std::thread::_State>, true>", scope: !2, file: !142, line: 73, size: 8, flags: DIFlagTypePassByValue | DIFlagNonTrivial, elements: !152, templateParams: !215, identifier: "_ZTSSt10_Head_baseILm1ESt14default_deleteINSt6thread6_StateEELb1EE")
!152 = !{!153, !169, !173, !177, !182, !186, !207, !212}
!153 = !DIDerivedType(tag: DW_TAG_inheritance, scope: !151, baseType: !154, extraData: i32 0)
!154 = distinct !DICompositeType(tag: DW_TAG_structure_type, name: "default_delete<std::thread::_State>", scope: !2, file: !135, line: 59, size: 8, flags: DIFlagTypePassByValue, elements: !155, templateParams: !167, identifier: "_ZTSSt14default_deleteINSt6thread6_StateEE")
!155 = !{!156, !160}
!156 = !DISubprogram(name: "default_delete", scope: !154, file: !135, line: 62, type: !157, scopeLine: 62, flags: DIFlagPrototyped, spFlags: 0)
!157 = !DISubroutineType(types: !158)
!158 = !{null, !159}
!159 = !DIDerivedType(tag: DW_TAG_pointer_type, baseType: !154, size: 64, flags: DIFlagArtificial | DIFlagObjectPointer)
!160 = !DISubprogram(name: "operator()", linkageName: "_ZNKSt14default_deleteINSt6thread6_StateEEclEPS1_", scope: !154, file: !135, line: 75, type: !161, scopeLine: 75, flags: DIFlagPrototyped, spFlags: 0)
!161 = !DISubroutineType(types: !162)
!162 = !{null, !163, !165}
!163 = !DIDerivedType(tag: DW_TAG_pointer_type, baseType: !164, size: 64, flags: DIFlagArtificial | DIFlagObjectPointer)
!164 = !DIDerivedType(tag: DW_TAG_const_type, baseType: !154)
!165 = !DIDerivedType(tag: DW_TAG_pointer_type, baseType: !166, size: 64)
!166 = !DICompositeType(tag: DW_TAG_structure_type, name: "_State", scope: !71, file: !72, line: 67, size: 64, flags: DIFlagFwdDecl | DIFlagNonTrivial)
!167 = !{!168}
!168 = !DITemplateTypeParameter(name: "_Tp", type: !166)
!169 = !DISubprogram(name: "_Head_base", scope: !151, file: !142, line: 76, type: !170, scopeLine: 76, flags: DIFlagPrototyped, spFlags: 0)
!170 = !DISubroutineType(types: !171)
!171 = !{null, !172}
!172 = !DIDerivedType(tag: DW_TAG_pointer_type, baseType: !151, size: 64, flags: DIFlagArtificial | DIFlagObjectPointer)
!173 = !DISubprogram(name: "_Head_base", scope: !151, file: !142, line: 79, type: !174, scopeLine: 79, flags: DIFlagPrototyped, spFlags: 0)
!174 = !DISubroutineType(types: !175)
!175 = !{null, !172, !176}
!176 = !DIDerivedType(tag: DW_TAG_reference_type, baseType: !164, size: 64)
!177 = !DISubprogram(name: "_Head_base", scope: !151, file: !142, line: 82, type: !178, scopeLine: 82, flags: DIFlagPrototyped, spFlags: 0)
!178 = !DISubroutineType(types: !179)
!179 = !{null, !172, !180}
!180 = !DIDerivedType(tag: DW_TAG_reference_type, baseType: !181, size: 64)
!181 = !DIDerivedType(tag: DW_TAG_const_type, baseType: !151)
!182 = !DISubprogram(name: "_Head_base", scope: !151, file: !142, line: 83, type: !183, scopeLine: 83, flags: DIFlagPrototyped, spFlags: 0)
!183 = !DISubroutineType(types: !184)
!184 = !{null, !172, !185}
!185 = !DIDerivedType(tag: DW_TAG_rvalue_reference_type, baseType: !151, size: 64)
!186 = !DISubprogram(name: "_Head_base", scope: !151, file: !142, line: 89, type: !187, scopeLine: 89, flags: DIFlagPrototyped, spFlags: 0)
!187 = !DISubroutineType(types: !188)
!188 = !{null, !172, !189, !196}
!189 = distinct !DICompositeType(tag: DW_TAG_structure_type, name: "allocator_arg_t", scope: !2, file: !190, line: 50, size: 8, flags: DIFlagTypePassByValue, elements: !191, identifier: "_ZTSSt15allocator_arg_t")
!190 = !DIFile(filename: "/usr/lib/gcc/x86_64-linux-gnu/9/../../../../include/c++/9/bits/uses_allocator.h", directory: "", checksumkind: CSK_MD5, checksum: "1053e71b8fd4aced4cd00e8f7c0e6347")
!191 = !{!192}
!192 = !DISubprogram(name: "allocator_arg_t", scope: !189, file: !190, line: 50, type: !193, scopeLine: 50, flags: DIFlagExplicit | DIFlagPrototyped, spFlags: 0)
!193 = !DISubroutineType(types: !194)
!194 = !{null, !195}
!195 = !DIDerivedType(tag: DW_TAG_pointer_type, baseType: !189, size: 64, flags: DIFlagArtificial | DIFlagObjectPointer)
!196 = distinct !DICompositeType(tag: DW_TAG_structure_type, name: "__uses_alloc0", scope: !2, file: !190, line: 73, size: 8, flags: DIFlagTypePassByValue, elements: !197, identifier: "_ZTSSt13__uses_alloc0")
!197 = !{!198, !200}
!198 = !DIDerivedType(tag: DW_TAG_inheritance, scope: !196, baseType: !199, extraData: i32 0)
!199 = distinct !DICompositeType(tag: DW_TAG_structure_type, name: "__uses_alloc_base", scope: !2, file: !190, line: 71, size: 8, flags: DIFlagTypePassByValue, elements: !49, identifier: "_ZTSSt17__uses_alloc_base")
!200 = !DIDerivedType(tag: DW_TAG_member, name: "_M_a", scope: !196, file: !190, line: 75, baseType: !201, size: 8)
!201 = distinct !DICompositeType(tag: DW_TAG_structure_type, name: "_Sink", scope: !196, file: !190, line: 75, size: 8, flags: DIFlagTypePassByValue, elements: !202, identifier: "_ZTSNSt13__uses_alloc05_SinkE")
!202 = !{!203}
!203 = !DISubprogram(name: "operator=", linkageName: "_ZNSt13__uses_alloc05_SinkaSEPKv", scope: !201, file: !190, line: 75, type: !204, scopeLine: 75, flags: DIFlagPrototyped, spFlags: 0)
!204 = !DISubroutineType(types: !205)
!205 = !{null, !206, !68}
!206 = !DIDerivedType(tag: DW_TAG_pointer_type, baseType: !201, size: 64, flags: DIFlagArtificial | DIFlagObjectPointer)
!207 = !DISubprogram(name: "_M_head", linkageName: "_ZNSt10_Head_baseILm1ESt14default_deleteINSt6thread6_StateEELb1EE7_M_headERS4_", scope: !151, file: !142, line: 113, type: !208, scopeLine: 113, flags: DIFlagPrototyped | DIFlagStaticMember, spFlags: 0)
!208 = !DISubroutineType(types: !209)
!209 = !{!210, !211}
!210 = !DIDerivedType(tag: DW_TAG_reference_type, baseType: !154, size: 64)
!211 = !DIDerivedType(tag: DW_TAG_reference_type, baseType: !151, size: 64)
!212 = !DISubprogram(name: "_M_head", linkageName: "_ZNSt10_Head_baseILm1ESt14default_deleteINSt6thread6_StateEELb1EE7_M_headERKS4_", scope: !151, file: !142, line: 116, type: !213, scopeLine: 116, flags: DIFlagPrototyped | DIFlagStaticMember, spFlags: 0)
!213 = !DISubroutineType(types: !214)
!214 = !{!176, !180}
!215 = !{!216, !217, !218}
!216 = !DITemplateValueParameter(name: "_Idx", type: !67, value: i64 1)
!217 = !DITemplateTypeParameter(name: "_Head", type: !154)
!218 = !DITemplateValueParameter(type: !117, defaulted: true, value: i8 1)
!219 = !DISubprogram(name: "_M_head", linkageName: "_ZNSt11_Tuple_implILm1EJSt14default_deleteINSt6thread6_StateEEEE7_M_headERS4_", scope: !148, file: !142, line: 334, type: !220, scopeLine: 334, flags: DIFlagPrototyped | DIFlagStaticMember, spFlags: 0)
!220 = !DISubroutineType(types: !221)
!221 = !{!210, !222}
!222 = !DIDerivedType(tag: DW_TAG_reference_type, baseType: !148, size: 64)
!223 = !DISubprogram(name: "_M_head", linkageName: "_ZNSt11_Tuple_implILm1EJSt14default_deleteINSt6thread6_StateEEEE7_M_headERKS4_", scope: !148, file: !142, line: 337, type: !224, scopeLine: 337, flags: DIFlagPrototyped | DIFlagStaticMember, spFlags: 0)
!224 = !DISubroutineType(types: !225)
!225 = !{!176, !226}
!226 = !DIDerivedType(tag: DW_TAG_reference_type, baseType: !227, size: 64)
!227 = !DIDerivedType(tag: DW_TAG_const_type, baseType: !148)
!228 = !DISubprogram(name: "_Tuple_impl", scope: !148, file: !142, line: 339, type: !229, scopeLine: 339, flags: DIFlagPrototyped, spFlags: 0)
!229 = !DISubroutineType(types: !230)
!230 = !{null, !231}
!231 = !DIDerivedType(tag: DW_TAG_pointer_type, baseType: !148, size: 64, flags: DIFlagArtificial | DIFlagObjectPointer)
!232 = !DISubprogram(name: "_Tuple_impl", scope: !148, file: !142, line: 343, type: !233, scopeLine: 343, flags: DIFlagExplicit | DIFlagPrototyped, spFlags: 0)
!233 = !DISubroutineType(types: !234)
!234 = !{null, !231, !176}
!235 = !DISubprogram(name: "_Tuple_impl", scope: !148, file: !142, line: 351, type: !236, scopeLine: 351, flags: DIFlagPrototyped, spFlags: 0)
!236 = !DISubroutineType(types: !237)
!237 = !{null, !231, !226}
!238 = !DISubprogram(name: "operator=", linkageName: "_ZNSt11_Tuple_implILm1EJSt14default_deleteINSt6thread6_StateEEEEaSERKS4_", scope: !148, file: !142, line: 355, type: !239, scopeLine: 355, flags: DIFlagPrototyped, spFlags: DISPFlagDeleted)
!239 = !DISubroutineType(types: !240)
!240 = !{!222, !231, !226}
!241 = !DISubprogram(name: "_Tuple_impl", scope: !148, file: !142, line: 358, type: !242, scopeLine: 358, flags: DIFlagPrototyped, spFlags: 0)
!242 = !DISubroutineType(types: !243)
!243 = !{null, !231, !244}
!244 = !DIDerivedType(tag: DW_TAG_rvalue_reference_type, baseType: !148, size: 64)
!245 = !DISubprogram(name: "_M_swap", linkageName: "_ZNSt11_Tuple_implILm1EJSt14default_deleteINSt6thread6_StateEEEE7_M_swapERS4_", scope: !148, file: !142, line: 427, type: !246, scopeLine: 427, flags: DIFlagProtected | DIFlagPrototyped, spFlags: 0)
!246 = !DISubroutineType(types: !247)
!247 = !{null, !231, !222}
!248 = !{!216, !249}
!249 = !DITemplateValueParameter(tag: DW_TAG_GNU_template_parameter_pack, name: "_Elements", value: !250)
!250 = !{!251}
!251 = !DITemplateTypeParameter(type: !154)
!252 = !DIDerivedType(tag: DW_TAG_inheritance, scope: !145, baseType: !253, flags: DIFlagPrivate, extraData: i32 0)
!253 = distinct !DICompositeType(tag: DW_TAG_structure_type, name: "_Head_base<0UL, std::thread::_State *, false>", scope: !2, file: !142, line: 120, size: 64, flags: DIFlagTypePassByValue | DIFlagNonTrivial, elements: !254, templateParams: !285, identifier: "_ZTSSt10_Head_baseILm0EPNSt6thread6_StateELb0EE")
!254 = !{!255, !256, !260, !265, !270, !274, !277, !282}
!255 = !DIDerivedType(tag: DW_TAG_member, name: "_M_head_impl", scope: !253, file: !142, line: 165, baseType: !165, size: 64)
!256 = !DISubprogram(name: "_Head_base", scope: !253, file: !142, line: 122, type: !257, scopeLine: 122, flags: DIFlagPrototyped, spFlags: 0)
!257 = !DISubroutineType(types: !258)
!258 = !{null, !259}
!259 = !DIDerivedType(tag: DW_TAG_pointer_type, baseType: !253, size: 64, flags: DIFlagArtificial | DIFlagObjectPointer)
!260 = !DISubprogram(name: "_Head_base", scope: !253, file: !142, line: 125, type: !261, scopeLine: 125, flags: DIFlagPrototyped, spFlags: 0)
!261 = !DISubroutineType(types: !262)
!262 = !{null, !259, !263}
!263 = !DIDerivedType(tag: DW_TAG_reference_type, baseType: !264, size: 64)
!264 = !DIDerivedType(tag: DW_TAG_const_type, baseType: !165)
!265 = !DISubprogram(name: "_Head_base", scope: !253, file: !142, line: 128, type: !266, scopeLine: 128, flags: DIFlagPrototyped, spFlags: 0)
!266 = !DISubroutineType(types: !267)
!267 = !{null, !259, !268}
!268 = !DIDerivedType(tag: DW_TAG_reference_type, baseType: !269, size: 64)
!269 = !DIDerivedType(tag: DW_TAG_const_type, baseType: !253)
!270 = !DISubprogram(name: "_Head_base", scope: !253, file: !142, line: 129, type: !271, scopeLine: 129, flags: DIFlagPrototyped, spFlags: 0)
!271 = !DISubroutineType(types: !272)
!272 = !{null, !259, !273}
!273 = !DIDerivedType(tag: DW_TAG_rvalue_reference_type, baseType: !253, size: 64)
!274 = !DISubprogram(name: "_Head_base", scope: !253, file: !142, line: 135, type: !275, scopeLine: 135, flags: DIFlagPrototyped, spFlags: 0)
!275 = !DISubroutineType(types: !276)
!276 = !{null, !259, !189, !196}
!277 = !DISubprogram(name: "_M_head", linkageName: "_ZNSt10_Head_baseILm0EPNSt6thread6_StateELb0EE7_M_headERS3_", scope: !253, file: !142, line: 160, type: !278, scopeLine: 160, flags: DIFlagPrototyped | DIFlagStaticMember, spFlags: 0)
!278 = !DISubroutineType(types: !279)
!279 = !{!280, !281}
!280 = !DIDerivedType(tag: DW_TAG_reference_type, baseType: !165, size: 64)
!281 = !DIDerivedType(tag: DW_TAG_reference_type, baseType: !253, size: 64)
!282 = !DISubprogram(name: "_M_head", linkageName: "_ZNSt10_Head_baseILm0EPNSt6thread6_StateELb0EE7_M_headERKS3_", scope: !253, file: !142, line: 163, type: !283, scopeLine: 163, flags: DIFlagPrototyped | DIFlagStaticMember, spFlags: 0)
!283 = !DISubroutineType(types: !284)
!284 = !{!263, !268}
!285 = !{!286, !287, !288}
!286 = !DITemplateValueParameter(name: "_Idx", type: !67, value: i64 0)
!287 = !DITemplateTypeParameter(name: "_Head", type: !165)
!288 = !DITemplateValueParameter(type: !117, defaulted: true, value: i8 0)
!289 = !DISubprogram(name: "_M_head", linkageName: "_ZNSt11_Tuple_implILm0EJPNSt6thread6_StateESt14default_deleteIS1_EEE7_M_headERS5_", scope: !145, file: !142, line: 195, type: !290, scopeLine: 195, flags: DIFlagPrototyped | DIFlagStaticMember, spFlags: 0)
!290 = !DISubroutineType(types: !291)
!291 = !{!280, !292}
!292 = !DIDerivedType(tag: DW_TAG_reference_type, baseType: !145, size: 64)
!293 = !DISubprogram(name: "_M_head", linkageName: "_ZNSt11_Tuple_implILm0EJPNSt6thread6_StateESt14default_deleteIS1_EEE7_M_headERKS5_", scope: !145, file: !142, line: 198, type: !294, scopeLine: 198, flags: DIFlagPrototyped | DIFlagStaticMember, spFlags: 0)
!294 = !DISubroutineType(types: !295)
!295 = !{!263, !296}
!296 = !DIDerivedType(tag: DW_TAG_reference_type, baseType: !297, size: 64)
!297 = !DIDerivedType(tag: DW_TAG_const_type, baseType: !145)
!298 = !DISubprogram(name: "_M_tail", linkageName: "_ZNSt11_Tuple_implILm0EJPNSt6thread6_StateESt14default_deleteIS1_EEE7_M_tailERS5_", scope: !145, file: !142, line: 201, type: !299, scopeLine: 201, flags: DIFlagPrototyped | DIFlagStaticMember, spFlags: 0)
!299 = !DISubroutineType(types: !300)
!300 = !{!301, !292}
!301 = !DIDerivedType(tag: DW_TAG_reference_type, baseType: !302, size: 64)
!302 = !DIDerivedType(tag: DW_TAG_typedef, name: "_Inherited", scope: !145, file: !142, line: 191, baseType: !148)
!303 = !DISubprogram(name: "_M_tail", linkageName: "_ZNSt11_Tuple_implILm0EJPNSt6thread6_StateESt14default_deleteIS1_EEE7_M_tailERKS5_", scope: !145, file: !142, line: 204, type: !304, scopeLine: 204, flags: DIFlagPrototyped | DIFlagStaticMember, spFlags: 0)
!304 = !DISubroutineType(types: !305)
!305 = !{!306, !296}
!306 = !DIDerivedType(tag: DW_TAG_reference_type, baseType: !307, size: 64)
!307 = !DIDerivedType(tag: DW_TAG_const_type, baseType: !302)
!308 = !DISubprogram(name: "_Tuple_impl", scope: !145, file: !142, line: 206, type: !309, scopeLine: 206, flags: DIFlagPrototyped, spFlags: 0)
!309 = !DISubroutineType(types: !310)
!310 = !{null, !311}
!311 = !DIDerivedType(tag: DW_TAG_pointer_type, baseType: !145, size: 64, flags: DIFlagArtificial | DIFlagObjectPointer)
!312 = !DISubprogram(name: "_Tuple_impl", scope: !145, file: !142, line: 210, type: !313, scopeLine: 210, flags: DIFlagExplicit | DIFlagPrototyped, spFlags: 0)
!313 = !DISubroutineType(types: !314)
!314 = !{null, !311, !263, !176}
!315 = !DISubprogram(name: "_Tuple_impl", scope: !145, file: !142, line: 220, type: !316, scopeLine: 220, flags: DIFlagPrototyped, spFlags: 0)
!316 = !DISubroutineType(types: !317)
!317 = !{null, !311, !296}
!318 = !DISubprogram(name: "operator=", linkageName: "_ZNSt11_Tuple_implILm0EJPNSt6thread6_StateESt14default_deleteIS1_EEEaSERKS5_", scope: !145, file: !142, line: 224, type: !319, scopeLine: 224, flags: DIFlagPrototyped, spFlags: DISPFlagDeleted)
!319 = !DISubroutineType(types: !320)
!320 = !{!292, !311, !296}
!321 = !DISubprogram(name: "_Tuple_impl", scope: !145, file: !142, line: 227, type: !322, scopeLine: 227, flags: DIFlagPrototyped, spFlags: 0)
!322 = !DISubroutineType(types: !323)
!323 = !{null, !311, !324}
!324 = !DIDerivedType(tag: DW_TAG_rvalue_reference_type, baseType: !145, size: 64)
!325 = !DISubprogram(name: "_M_swap", linkageName: "_ZNSt11_Tuple_implILm0EJPNSt6thread6_StateESt14default_deleteIS1_EEE7_M_swapERS5_", scope: !145, file: !142, line: 316, type: !326, scopeLine: 316, flags: DIFlagProtected | DIFlagPrototyped, spFlags: 0)
!326 = !DISubroutineType(types: !327)
!327 = !{null, !311, !292}
!328 = !{!286, !329}
!329 = !DITemplateValueParameter(tag: DW_TAG_GNU_template_parameter_pack, name: "_Elements", value: !330)
!330 = !{!331, !251}
!331 = !DITemplateTypeParameter(type: !165)
!332 = !DISubprogram(name: "tuple", scope: !141, file: !142, line: 981, type: !333, scopeLine: 981, flags: DIFlagPublic | DIFlagPrototyped, spFlags: 0)
!333 = !DISubroutineType(types: !334)
!334 = !{null, !335, !336}
!335 = !DIDerivedType(tag: DW_TAG_pointer_type, baseType: !141, size: 64, flags: DIFlagArtificial | DIFlagObjectPointer)
!336 = !DIDerivedType(tag: DW_TAG_reference_type, baseType: !337, size: 64)
!337 = !DIDerivedType(tag: DW_TAG_const_type, baseType: !141)
!338 = !DISubprogram(name: "tuple", scope: !141, file: !142, line: 983, type: !339, scopeLine: 983, flags: DIFlagPublic | DIFlagPrototyped, spFlags: 0)
!339 = !DISubroutineType(types: !340)
!340 = !{null, !335, !341}
!341 = !DIDerivedType(tag: DW_TAG_rvalue_reference_type, baseType: !141, size: 64)
!342 = !DISubprogram(name: "operator=", linkageName: "_ZNSt5tupleIJPNSt6thread6_StateESt14default_deleteIS1_EEEaSERKS5_", scope: !141, file: !142, line: 1205, type: !343, scopeLine: 1205, flags: DIFlagPublic | DIFlagPrototyped, spFlags: 0)
!343 = !DISubroutineType(types: !344)
!344 = !{!345, !335, !346}
!345 = !DIDerivedType(tag: DW_TAG_reference_type, baseType: !141, size: 64)
!346 = !DIDerivedType(tag: DW_TAG_typedef, name: "type", scope: !347, file: !47, line: 2054, baseType: !336)
!347 = distinct !DICompositeType(tag: DW_TAG_structure_type, name: "conditional<true, const std::tuple<std::thread::_State *, std::default_delete<std::thread::_State> > &, const std::__nonesuch_no_braces &>", scope: !2, file: !47, line: 2053, size: 8, flags: DIFlagTypePassByValue, elements: !49, templateParams: !348, identifier: "_ZTSSt11conditionalILb1ERKSt5tupleIJPNSt6thread6_StateESt14default_deleteIS2_EEERKSt20__nonesuch_no_bracesE")
!348 = !{!349, !350, !351}
!349 = !DITemplateValueParameter(name: "_Cond", type: !117, value: i8 1)
!350 = !DITemplateTypeParameter(name: "_Iftrue", type: !336)
!351 = !DITemplateTypeParameter(name: "_Iffalse", type: !352)
!352 = !DIDerivedType(tag: DW_TAG_reference_type, baseType: !353, size: 64)
!353 = !DIDerivedType(tag: DW_TAG_const_type, baseType: !354)
!354 = !DICompositeType(tag: DW_TAG_structure_type, name: "__nonesuch_no_braces", scope: !2, file: !355, line: 185, size: 8, flags: DIFlagFwdDecl | DIFlagNonTrivial, identifier: "_ZTSSt20__nonesuch_no_braces")
!355 = !DIFile(filename: "/usr/lib/gcc/x86_64-linux-gnu/9/../../../../include/c++/9/bits/stl_pair.h", directory: "", checksumkind: CSK_MD5, checksum: "17e15386fd23a497aa1e369bdbc2175b")
!356 = !DISubprogram(name: "operator=", linkageName: "_ZNSt5tupleIJPNSt6thread6_StateESt14default_deleteIS1_EEEaSEOS5_", scope: !141, file: !142, line: 1215, type: !357, scopeLine: 1215, flags: DIFlagPublic | DIFlagPrototyped, spFlags: 0)
!357 = !DISubroutineType(types: !358)
!358 = !{!345, !335, !359}
!359 = !DIDerivedType(tag: DW_TAG_typedef, name: "type", scope: !360, file: !47, line: 2054, baseType: !341)
!360 = distinct !DICompositeType(tag: DW_TAG_structure_type, name: "conditional<true, std::tuple<std::thread::_State *, std::default_delete<std::thread::_State> > &&, std::__nonesuch_no_braces &&>", scope: !2, file: !47, line: 2053, size: 8, flags: DIFlagTypePassByValue, elements: !49, templateParams: !361, identifier: "_ZTSSt11conditionalILb1EOSt5tupleIJPNSt6thread6_StateESt14default_deleteIS2_EEEOSt20__nonesuch_no_bracesE")
!361 = !{!349, !362, !363}
!362 = !DITemplateTypeParameter(name: "_Iftrue", type: !341)
!363 = !DITemplateTypeParameter(name: "_Iffalse", type: !364)
!364 = !DIDerivedType(tag: DW_TAG_rvalue_reference_type, baseType: !354, size: 64)
!365 = !DISubprogram(name: "swap", linkageName: "_ZNSt5tupleIJPNSt6thread6_StateESt14default_deleteIS1_EEE4swapERS5_", scope: !141, file: !142, line: 1263, type: !366, scopeLine: 1263, flags: DIFlagPublic | DIFlagPrototyped, spFlags: 0)
!366 = !DISubroutineType(types: !367)
!367 = !{null, !335, !345}
!368 = !{!329}
!369 = !DISubprogram(name: "__uniq_ptr_impl", scope: !138, file: !135, line: 146, type: !370, scopeLine: 146, flags: DIFlagPublic | DIFlagPrototyped, spFlags: 0)
!370 = !DISubroutineType(types: !371)
!371 = !{null, !372}
!372 = !DIDerivedType(tag: DW_TAG_pointer_type, baseType: !138, size: 64, flags: DIFlagArtificial | DIFlagObjectPointer)
!373 = !DISubprogram(name: "__uniq_ptr_impl", scope: !138, file: !135, line: 147, type: !374, scopeLine: 147, flags: DIFlagPublic | DIFlagPrototyped, spFlags: 0)
!374 = !DISubroutineType(types: !375)
!375 = !{null, !372, !376}
!376 = !DIDerivedType(tag: DW_TAG_typedef, name: "pointer", scope: !138, file: !135, line: 140, baseType: !377, flags: DIFlagPublic)
!377 = !DIDerivedType(tag: DW_TAG_typedef, name: "type", scope: !378, file: !135, line: 125, baseType: !165)
!378 = distinct !DICompositeType(tag: DW_TAG_structure_type, name: "_Ptr<std::thread::_State, std::default_delete<std::thread::_State>, void>", scope: !138, file: !135, line: 123, size: 8, flags: DIFlagTypePassByValue, elements: !49, templateParams: !379, identifier: "_ZTSNSt15__uniq_ptr_implINSt6thread6_StateESt14default_deleteIS1_EE4_PtrIS1_S3_vEE")
!379 = !{!380, !381, !382}
!380 = !DITemplateTypeParameter(name: "_Up", type: !166)
!381 = !DITemplateTypeParameter(name: "_Ep", type: !154)
!382 = !DITemplateTypeParameter(type: null, defaulted: true)
!383 = !DISubprogram(name: "_M_ptr", linkageName: "_ZNSt15__uniq_ptr_implINSt6thread6_StateESt14default_deleteIS1_EE6_M_ptrEv", scope: !138, file: !135, line: 153, type: !384, scopeLine: 153, flags: DIFlagPublic | DIFlagPrototyped, spFlags: 0)
!384 = !DISubroutineType(types: !385)
!385 = !{!386, !372}
!386 = !DIDerivedType(tag: DW_TAG_reference_type, baseType: !376, size: 64)
!387 = !DISubprogram(name: "_M_ptr", linkageName: "_ZNKSt15__uniq_ptr_implINSt6thread6_StateESt14default_deleteIS1_EE6_M_ptrEv", scope: !138, file: !135, line: 154, type: !388, scopeLine: 154, flags: DIFlagPublic | DIFlagPrototyped, spFlags: 0)
!388 = !DISubroutineType(types: !389)
!389 = !{!376, !390}
!390 = !DIDerivedType(tag: DW_TAG_pointer_type, baseType: !391, size: 64, flags: DIFlagArtificial | DIFlagObjectPointer)
!391 = !DIDerivedType(tag: DW_TAG_const_type, baseType: !138)
!392 = !DISubprogram(name: "_M_deleter", linkageName: "_ZNSt15__uniq_ptr_implINSt6thread6_StateESt14default_deleteIS1_EE10_M_deleterEv", scope: !138, file: !135, line: 155, type: !393, scopeLine: 155, flags: DIFlagPublic | DIFlagPrototyped, spFlags: 0)
!393 = !DISubroutineType(types: !394)
!394 = !{!210, !372}
!395 = !DISubprogram(name: "_M_deleter", linkageName: "_ZNKSt15__uniq_ptr_implINSt6thread6_StateESt14default_deleteIS1_EE10_M_deleterEv", scope: !138, file: !135, line: 156, type: !396, scopeLine: 156, flags: DIFlagPublic | DIFlagPrototyped, spFlags: 0)
!396 = !DISubroutineType(types: !397)
!397 = !{!176, !390}
!398 = !DISubprogram(name: "swap", linkageName: "_ZNSt15__uniq_ptr_implINSt6thread6_StateESt14default_deleteIS1_EE4swapERS4_", scope: !138, file: !135, line: 159, type: !399, scopeLine: 159, flags: DIFlagPublic | DIFlagPrototyped, spFlags: 0)
!399 = !DISubroutineType(types: !400)
!400 = !{null, !372, !401}
!401 = !DIDerivedType(tag: DW_TAG_reference_type, baseType: !138, size: 64)
!402 = !{!168, !403}
!403 = !DITemplateTypeParameter(name: "_Dp", type: !154)
!404 = !DISubprogram(name: "unique_ptr", scope: !134, file: !135, line: 257, type: !405, scopeLine: 257, flags: DIFlagPublic | DIFlagPrototyped, spFlags: 0)
!405 = !DISubroutineType(types: !406)
!406 = !{null, !407, !408}
!407 = !DIDerivedType(tag: DW_TAG_pointer_type, baseType: !134, size: 64, flags: DIFlagArtificial | DIFlagObjectPointer)
!408 = !DIDerivedType(tag: DW_TAG_rvalue_reference_type, baseType: !134, size: 64)
!409 = !DISubprogram(name: "~unique_ptr", scope: !134, file: !135, line: 286, type: !410, scopeLine: 286, flags: DIFlagPublic | DIFlagPrototyped, spFlags: 0)
!410 = !DISubroutineType(types: !411)
!411 = !{null, !407}
!412 = !DISubprogram(name: "operator=", linkageName: "_ZNSt10unique_ptrINSt6thread6_StateESt14default_deleteIS1_EEaSEOS4_", scope: !134, file: !135, line: 305, type: !413, scopeLine: 305, flags: DIFlagPublic | DIFlagPrototyped, spFlags: 0)
!413 = !DISubroutineType(types: !414)
!414 = !{!415, !407, !408}
!415 = !DIDerivedType(tag: DW_TAG_reference_type, baseType: !134, size: 64)
!416 = !DISubprogram(name: "operator=", linkageName: "_ZNSt10unique_ptrINSt6thread6_StateESt14default_deleteIS1_EEaSEDn", scope: !134, file: !135, line: 334, type: !417, scopeLine: 334, flags: DIFlagPublic | DIFlagPrototyped, spFlags: 0)
!417 = !DISubroutineType(types: !418)
!418 = !{!415, !407, !419}
!419 = !DIDerivedType(tag: DW_TAG_typedef, name: "nullptr_t", scope: !2, file: !66, line: 262, baseType: !420)
!420 = !DIBasicType(tag: DW_TAG_unspecified_type, name: "decltype(nullptr)")
!421 = !DISubprogram(name: "operator*", linkageName: "_ZNKSt10unique_ptrINSt6thread6_StateESt14default_deleteIS1_EEdeEv", scope: !134, file: !135, line: 344, type: !422, scopeLine: 344, flags: DIFlagPublic | DIFlagPrototyped, spFlags: 0)
!422 = !DISubroutineType(types: !423)
!423 = !{!424, !428}
!424 = !DIDerivedType(tag: DW_TAG_typedef, name: "type", scope: !425, file: !47, line: 1467, baseType: !427)
!425 = distinct !DICompositeType(tag: DW_TAG_structure_type, name: "__add_lvalue_reference_helper<std::thread::_State, true>", scope: !2, file: !47, line: 1466, size: 8, flags: DIFlagTypePassByValue, elements: !49, templateParams: !426, identifier: "_ZTSSt29__add_lvalue_reference_helperINSt6thread6_StateELb1EE")
!426 = !{!168, !218}
!427 = !DIDerivedType(tag: DW_TAG_reference_type, baseType: !166, size: 64)
!428 = !DIDerivedType(tag: DW_TAG_pointer_type, baseType: !429, size: 64, flags: DIFlagArtificial | DIFlagObjectPointer)
!429 = !DIDerivedType(tag: DW_TAG_const_type, baseType: !134)
!430 = !DISubprogram(name: "operator->", linkageName: "_ZNKSt10unique_ptrINSt6thread6_StateESt14default_deleteIS1_EEptEv", scope: !134, file: !135, line: 352, type: !431, scopeLine: 352, flags: DIFlagPublic | DIFlagPrototyped, spFlags: 0)
!431 = !DISubroutineType(types: !432)
!432 = !{!433, !428}
!433 = !DIDerivedType(tag: DW_TAG_typedef, name: "pointer", scope: !134, file: !135, line: 181, baseType: !376, flags: DIFlagPublic)
!434 = !DISubprogram(name: "get", linkageName: "_ZNKSt10unique_ptrINSt6thread6_StateESt14default_deleteIS1_EE3getEv", scope: !134, file: !135, line: 360, type: !431, scopeLine: 360, flags: DIFlagPublic | DIFlagPrototyped, spFlags: 0)
!435 = !DISubprogram(name: "get_deleter", linkageName: "_ZNSt10unique_ptrINSt6thread6_StateESt14default_deleteIS1_EE11get_deleterEv", scope: !134, file: !135, line: 365, type: !436, scopeLine: 365, flags: DIFlagPublic | DIFlagPrototyped, spFlags: 0)
!436 = !DISubroutineType(types: !437)
!437 = !{!438, !407}
!438 = !DIDerivedType(tag: DW_TAG_reference_type, baseType: !439, size: 64)
!439 = !DIDerivedType(tag: DW_TAG_typedef, name: "deleter_type", scope: !134, file: !135, line: 183, baseType: !154, flags: DIFlagPublic)
!440 = !DISubprogram(name: "get_deleter", linkageName: "_ZNKSt10unique_ptrINSt6thread6_StateESt14default_deleteIS1_EE11get_deleterEv", scope: !134, file: !135, line: 370, type: !441, scopeLine: 370, flags: DIFlagPublic | DIFlagPrototyped, spFlags: 0)
!441 = !DISubroutineType(types: !442)
!442 = !{!443, !428}
!443 = !DIDerivedType(tag: DW_TAG_reference_type, baseType: !444, size: 64)
!444 = !DIDerivedType(tag: DW_TAG_const_type, baseType: !439)
!445 = !DISubprogram(name: "operator bool", linkageName: "_ZNKSt10unique_ptrINSt6thread6_StateESt14default_deleteIS1_EEcvbEv", scope: !134, file: !135, line: 374, type: !446, scopeLine: 374, flags: DIFlagPublic | DIFlagExplicit | DIFlagPrototyped, spFlags: 0)
!446 = !DISubroutineType(types: !447)
!447 = !{!117, !428}
!448 = !DISubprogram(name: "release", linkageName: "_ZNSt10unique_ptrINSt6thread6_StateESt14default_deleteIS1_EE7releaseEv", scope: !134, file: !135, line: 381, type: !449, scopeLine: 381, flags: DIFlagPublic | DIFlagPrototyped, spFlags: 0)
!449 = !DISubroutineType(types: !450)
!450 = !{!433, !407}
!451 = !DISubprogram(name: "reset", linkageName: "_ZNSt10unique_ptrINSt6thread6_StateESt14default_deleteIS1_EE5resetEPS1_", scope: !134, file: !135, line: 395, type: !452, scopeLine: 395, flags: DIFlagPublic | DIFlagPrototyped, spFlags: 0)
!452 = !DISubroutineType(types: !453)
!453 = !{null, !407, !433}
!454 = !DISubprogram(name: "swap", linkageName: "_ZNSt10unique_ptrINSt6thread6_StateESt14default_deleteIS1_EE4swapERS4_", scope: !134, file: !135, line: 407, type: !455, scopeLine: 407, flags: DIFlagPublic | DIFlagPrototyped, spFlags: 0)
!455 = !DISubroutineType(types: !456)
!456 = !{null, !407, !415}
!457 = !DISubprogram(name: "unique_ptr", scope: !134, file: !135, line: 414, type: !458, scopeLine: 414, flags: DIFlagPublic | DIFlagPrototyped, spFlags: DISPFlagDeleted)
!458 = !DISubroutineType(types: !459)
!459 = !{null, !407, !460}
!460 = !DIDerivedType(tag: DW_TAG_reference_type, baseType: !429, size: 64)
!461 = !DISubprogram(name: "operator=", linkageName: "_ZNSt10unique_ptrINSt6thread6_StateESt14default_deleteIS1_EEaSERKS4_", scope: !134, file: !135, line: 415, type: !462, scopeLine: 415, flags: DIFlagPublic | DIFlagPrototyped, spFlags: DISPFlagDeleted)
!462 = !DISubroutineType(types: !463)
!463 = !{!415, !407, !460}
!464 = !{!168, !465}
!465 = !DITemplateTypeParameter(name: "_Dp", type: !154, defaulted: true)
!466 = !DIDerivedType(tag: DW_TAG_typedef, name: "__do_it", scope: !467, file: !64, line: 465, baseType: !995)
!467 = distinct !DISubprogram(name: "_S_relocate", linkageName: "_ZNSt6vectorISt6threadSaIS0_EE11_S_relocateEPS0_S3_S3_RS1_", scope: !468, file: !64, line: 462, type: !723, scopeLine: 464, flags: DIFlagPrototyped, spFlags: DISPFlagDefinition, unit: !9, declaration: !722, retainedNodes: !49)
!468 = distinct !DICompositeType(tag: DW_TAG_class_type, name: "vector<std::thread, std::allocator<std::thread> >", scope: !2, file: !64, line: 386, size: 192, flags: DIFlagTypePassByReference | DIFlagNonTrivial, elements: !469, templateParams: !993, identifier: "_ZTSSt6vectorISt6threadSaIS0_EE")
!469 = !{!470, !680, !697, !712, !713, !719, !722, !725, !729, !735, !738, !744, !749, !753, !756, !759, !762, !765, !770, !771, !775, !778, !781, !784, !787, !849, !855, !856, !857, !862, !867, !868, !869, !870, !871, !872, !873, !876, !877, !880, !881, !882, !883, !886, !887, !895, !902, !905, !906, !907, !910, !913, !914, !915, !918, !921, !924, !928, !929, !932, !935, !938, !941, !944, !947, !950, !951, !952, !953, !954, !957, !958, !961, !962, !963, !970, !973, !978, !981, !984, !987, !990}
!470 = !DIDerivedType(tag: DW_TAG_inheritance, scope: !468, baseType: !471, flags: DIFlagProtected, extraData: i32 0)
!471 = distinct !DICompositeType(tag: DW_TAG_structure_type, name: "_Vector_base<std::thread, std::allocator<std::thread> >", scope: !2, file: !64, line: 81, size: 192, flags: DIFlagTypePassByReference | DIFlagNonTrivial, elements: !472, templateParams: !679, identifier: "_ZTSSt12_Vector_baseISt6threadSaIS0_EE")
!472 = !{!473, !630, !635, !640, !644, !647, !652, !655, !658, !662, !665, !668, !671, !672, !675, !678}
!473 = !DIDerivedType(tag: DW_TAG_member, name: "_M_impl", scope: !471, file: !64, line: 337, baseType: !474, size: 192)
!474 = distinct !DICompositeType(tag: DW_TAG_structure_type, name: "_Vector_impl", scope: !471, file: !64, line: 125, size: 192, flags: DIFlagTypePassByReference | DIFlagNonTrivial, elements: !475, identifier: "_ZTSNSt12_Vector_baseISt6threadSaIS0_EE12_Vector_implE")
!475 = !{!476, !585, !610, !614, !619, !623, !627}
!476 = !DIDerivedType(tag: DW_TAG_inheritance, scope: !474, baseType: !477, extraData: i32 0)
!477 = !DIDerivedType(tag: DW_TAG_typedef, name: "_Tp_alloc_type", scope: !471, file: !64, line: 84, baseType: !478)
!478 = !DIDerivedType(tag: DW_TAG_typedef, name: "other", scope: !480, file: !479, line: 120, baseType: !584)
!479 = !DIFile(filename: "/usr/lib/gcc/x86_64-linux-gnu/9/../../../../include/c++/9/ext/alloc_traits.h", directory: "")
!480 = distinct !DICompositeType(tag: DW_TAG_structure_type, name: "rebind<std::thread>", scope: !481, file: !479, line: 119, size: 8, flags: DIFlagTypePassByValue, elements: !49, templateParams: !534, identifier: "_ZTSN9__gnu_cxx14__alloc_traitsISaISt6threadES1_E6rebindIS1_EE")
!481 = distinct !DICompositeType(tag: DW_TAG_structure_type, name: "__alloc_traits<std::allocator<std::thread>, std::thread>", scope: !14, file: !479, line: 50, size: 8, flags: DIFlagTypePassByValue, elements: !482, templateParams: !582, identifier: "_ZTSN9__gnu_cxx14__alloc_traitsISaISt6threadES1_EE")
!482 = !{!483, !569, !572, !575, !578, !579, !580, !581}
!483 = !DIDerivedType(tag: DW_TAG_inheritance, scope: !481, baseType: !484, extraData: i32 0)
!484 = distinct !DICompositeType(tag: DW_TAG_structure_type, name: "allocator_traits<std::allocator<std::thread> >", scope: !2, file: !485, line: 391, size: 8, flags: DIFlagTypePassByValue, elements: !486, templateParams: !567, identifier: "_ZTSSt16allocator_traitsISaISt6threadEE")
!485 = !DIFile(filename: "/usr/lib/gcc/x86_64-linux-gnu/9/../../../../include/c++/9/bits/alloc_traits.h", directory: "", checksumkind: CSK_MD5, checksum: "85ee8407edc269dc89bdeefb1e0a7d19")
!486 = !{!487, !551, !555, !558, !564}
!487 = !DISubprogram(name: "allocate", linkageName: "_ZNSt16allocator_traitsISaISt6threadEE8allocateERS1_m", scope: !484, file: !485, line: 442, type: !488, scopeLine: 442, flags: DIFlagPrototyped | DIFlagStaticMember, spFlags: 0)
!488 = !DISubroutineType(types: !489)
!489 = !{!490, !491, !550}
!490 = !DIDerivedType(tag: DW_TAG_typedef, name: "pointer", scope: !484, file: !485, line: 399, baseType: !70)
!491 = !DIDerivedType(tag: DW_TAG_reference_type, baseType: !492, size: 64)
!492 = !DIDerivedType(tag: DW_TAG_typedef, name: "allocator_type", scope: !484, file: !485, line: 394, baseType: !493)
!493 = distinct !DICompositeType(tag: DW_TAG_class_type, name: "allocator<std::thread>", scope: !2, file: !494, line: 111, size: 8, flags: DIFlagTypePassByReference | DIFlagNonTrivial, elements: !495, templateParams: !534, identifier: "_ZTSSaISt6threadE")
!494 = !DIFile(filename: "/usr/lib/gcc/x86_64-linux-gnu/9/../../../../include/c++/9/bits/allocator.h", directory: "", checksumkind: CSK_MD5, checksum: "2b09c654af198fc279a8593bb7410846")
!495 = !{!496, !536, !540, !545, !549}
!496 = !DIDerivedType(tag: DW_TAG_inheritance, scope: !493, baseType: !497, flags: DIFlagPublic, extraData: i32 0)
!497 = !DIDerivedType(tag: DW_TAG_typedef, name: "__allocator_base<std::thread>", scope: !2, file: !498, line: 48, baseType: !499)
!498 = !DIFile(filename: "/usr/lib/gcc/x86_64-linux-gnu/9/../../../../include/x86_64-linux-gnu/c++/9/bits/c++allocator.h", directory: "", checksumkind: CSK_MD5, checksum: "68f767832132a8a31e159cf4d5235c5b")
!499 = distinct !DICompositeType(tag: DW_TAG_class_type, name: "new_allocator<std::thread>", scope: !14, file: !500, line: 58, size: 8, flags: DIFlagTypePassByReference | DIFlagNonTrivial, elements: !501, templateParams: !534, identifier: "_ZTSN9__gnu_cxx13new_allocatorISt6threadEE")
!500 = !DIFile(filename: "/usr/lib/gcc/x86_64-linux-gnu/9/../../../../include/c++/9/ext/new_allocator.h", directory: "", checksumkind: CSK_MD5, checksum: "d815d3ddb625b8849e2bd401d0f6b354")
!501 = !{!502, !506, !511, !512, !518, !524, !528, !531}
!502 = !DISubprogram(name: "new_allocator", scope: !499, file: !500, line: 80, type: !503, scopeLine: 80, flags: DIFlagPublic | DIFlagPrototyped, spFlags: 0)
!503 = !DISubroutineType(types: !504)
!504 = !{null, !505}
!505 = !DIDerivedType(tag: DW_TAG_pointer_type, baseType: !499, size: 64, flags: DIFlagArtificial | DIFlagObjectPointer)
!506 = !DISubprogram(name: "new_allocator", scope: !499, file: !500, line: 83, type: !507, scopeLine: 83, flags: DIFlagPublic | DIFlagPrototyped, spFlags: 0)
!507 = !DISubroutineType(types: !508)
!508 = !{null, !505, !509}
!509 = !DIDerivedType(tag: DW_TAG_reference_type, baseType: !510, size: 64)
!510 = !DIDerivedType(tag: DW_TAG_const_type, baseType: !499)
!511 = !DISubprogram(name: "~new_allocator", scope: !499, file: !500, line: 89, type: !503, scopeLine: 89, flags: DIFlagPublic | DIFlagPrototyped, spFlags: 0)
!512 = !DISubprogram(name: "address", linkageName: "_ZNK9__gnu_cxx13new_allocatorISt6threadE7addressERS1_", scope: !499, file: !500, line: 92, type: !513, scopeLine: 92, flags: DIFlagPublic | DIFlagPrototyped, spFlags: 0)
!513 = !DISubroutineType(types: !514)
!514 = !{!515, !516, !517}
!515 = !DIDerivedType(tag: DW_TAG_typedef, name: "pointer", scope: !499, file: !500, line: 63, baseType: !70, flags: DIFlagPublic)
!516 = !DIDerivedType(tag: DW_TAG_pointer_type, baseType: !510, size: 64, flags: DIFlagArtificial | DIFlagObjectPointer)
!517 = !DIDerivedType(tag: DW_TAG_typedef, name: "reference", scope: !499, file: !500, line: 65, baseType: !107, flags: DIFlagPublic)
!518 = !DISubprogram(name: "address", linkageName: "_ZNK9__gnu_cxx13new_allocatorISt6threadE7addressERKS1_", scope: !499, file: !500, line: 96, type: !519, scopeLine: 96, flags: DIFlagPublic | DIFlagPrototyped, spFlags: 0)
!519 = !DISubroutineType(types: !520)
!520 = !{!521, !516, !523}
!521 = !DIDerivedType(tag: DW_TAG_typedef, name: "const_pointer", scope: !499, file: !500, line: 64, baseType: !522, flags: DIFlagPublic)
!522 = !DIDerivedType(tag: DW_TAG_pointer_type, baseType: !99, size: 64)
!523 = !DIDerivedType(tag: DW_TAG_typedef, name: "const_reference", scope: !499, file: !500, line: 66, baseType: !98, flags: DIFlagPublic)
!524 = !DISubprogram(name: "allocate", linkageName: "_ZN9__gnu_cxx13new_allocatorISt6threadE8allocateEmPKv", scope: !499, file: !500, line: 102, type: !525, scopeLine: 102, flags: DIFlagPublic | DIFlagPrototyped, spFlags: 0)
!525 = !DISubroutineType(types: !526)
!526 = !{!515, !505, !527, !68}
!527 = !DIDerivedType(tag: DW_TAG_typedef, name: "size_type", file: !500, line: 61, baseType: !65, flags: DIFlagPublic)
!528 = !DISubprogram(name: "deallocate", linkageName: "_ZN9__gnu_cxx13new_allocatorISt6threadE10deallocateEPS1_m", scope: !499, file: !500, line: 119, type: !529, scopeLine: 119, flags: DIFlagPublic | DIFlagPrototyped, spFlags: 0)
!529 = !DISubroutineType(types: !530)
!530 = !{null, !505, !515, !527}
!531 = !DISubprogram(name: "max_size", linkageName: "_ZNK9__gnu_cxx13new_allocatorISt6threadE8max_sizeEv", scope: !499, file: !500, line: 132, type: !532, scopeLine: 132, flags: DIFlagPublic | DIFlagPrototyped, spFlags: 0)
!532 = !DISubroutineType(types: !533)
!533 = !{!527, !516}
!534 = !{!535}
!535 = !DITemplateTypeParameter(name: "_Tp", type: !71)
!536 = !DISubprogram(name: "allocator", scope: !493, file: !494, line: 137, type: !537, scopeLine: 137, flags: DIFlagPublic | DIFlagPrototyped, spFlags: 0)
!537 = !DISubroutineType(types: !538)
!538 = !{null, !539}
!539 = !DIDerivedType(tag: DW_TAG_pointer_type, baseType: !493, size: 64, flags: DIFlagArtificial | DIFlagObjectPointer)
!540 = !DISubprogram(name: "allocator", scope: !493, file: !494, line: 140, type: !541, scopeLine: 140, flags: DIFlagPublic | DIFlagPrototyped, spFlags: 0)
!541 = !DISubroutineType(types: !542)
!542 = !{null, !539, !543}
!543 = !DIDerivedType(tag: DW_TAG_reference_type, baseType: !544, size: 64)
!544 = !DIDerivedType(tag: DW_TAG_const_type, baseType: !493)
!545 = !DISubprogram(name: "operator=", linkageName: "_ZNSaISt6threadEaSERKS0_", scope: !493, file: !494, line: 145, type: !546, scopeLine: 145, flags: DIFlagPublic | DIFlagPrototyped, spFlags: 0)
!546 = !DISubroutineType(types: !547)
!547 = !{!548, !539, !543}
!548 = !DIDerivedType(tag: DW_TAG_reference_type, baseType: !493, size: 64)
!549 = !DISubprogram(name: "~allocator", scope: !493, file: !494, line: 152, type: !537, scopeLine: 152, flags: DIFlagPublic | DIFlagPrototyped, spFlags: 0)
!550 = !DIDerivedType(tag: DW_TAG_typedef, name: "size_type", file: !485, line: 414, baseType: !65)
!551 = !DISubprogram(name: "allocate", linkageName: "_ZNSt16allocator_traitsISaISt6threadEE8allocateERS1_mPKv", scope: !484, file: !485, line: 456, type: !552, scopeLine: 456, flags: DIFlagPrototyped | DIFlagStaticMember, spFlags: 0)
!552 = !DISubroutineType(types: !553)
!553 = !{!490, !491, !550, !554}
!554 = !DIDerivedType(tag: DW_TAG_typedef, name: "const_void_pointer", file: !485, line: 408, baseType: !68)
!555 = !DISubprogram(name: "deallocate", linkageName: "_ZNSt16allocator_traitsISaISt6threadEE10deallocateERS1_PS0_m", scope: !484, file: !485, line: 468, type: !556, scopeLine: 468, flags: DIFlagPrototyped | DIFlagStaticMember, spFlags: 0)
!556 = !DISubroutineType(types: !557)
!557 = !{null, !491, !490, !550}
!558 = !DISubprogram(name: "max_size", linkageName: "_ZNSt16allocator_traitsISaISt6threadEE8max_sizeERKS1_", scope: !484, file: !485, line: 504, type: !559, scopeLine: 504, flags: DIFlagPrototyped | DIFlagStaticMember, spFlags: 0)
!559 = !DISubroutineType(types: !560)
!560 = !{!561, !562}
!561 = !DIDerivedType(tag: DW_TAG_typedef, name: "size_type", scope: !484, file: !485, line: 414, baseType: !65)
!562 = !DIDerivedType(tag: DW_TAG_reference_type, baseType: !563, size: 64)
!563 = !DIDerivedType(tag: DW_TAG_const_type, baseType: !492)
!564 = !DISubprogram(name: "select_on_container_copy_construction", linkageName: "_ZNSt16allocator_traitsISaISt6threadEE37select_on_container_copy_constructionERKS1_", scope: !484, file: !485, line: 513, type: !565, scopeLine: 513, flags: DIFlagPrototyped | DIFlagStaticMember, spFlags: 0)
!565 = !DISubroutineType(types: !566)
!566 = !{!492, !562}
!567 = !{!568}
!568 = !DITemplateTypeParameter(name: "_Alloc", type: !493)
!569 = !DISubprogram(name: "_S_select_on_copy", linkageName: "_ZN9__gnu_cxx14__alloc_traitsISaISt6threadES1_E17_S_select_on_copyERKS2_", scope: !481, file: !479, line: 97, type: !570, scopeLine: 97, flags: DIFlagPrototyped | DIFlagStaticMember, spFlags: 0)
!570 = !DISubroutineType(types: !571)
!571 = !{!493, !543}
!572 = !DISubprogram(name: "_S_on_swap", linkageName: "_ZN9__gnu_cxx14__alloc_traitsISaISt6threadES1_E10_S_on_swapERS2_S4_", scope: !481, file: !479, line: 100, type: !573, scopeLine: 100, flags: DIFlagPrototyped | DIFlagStaticMember, spFlags: 0)
!573 = !DISubroutineType(types: !574)
!574 = !{null, !548, !548}
!575 = !DISubprogram(name: "_S_propagate_on_copy_assign", linkageName: "_ZN9__gnu_cxx14__alloc_traitsISaISt6threadES1_E27_S_propagate_on_copy_assignEv", scope: !481, file: !479, line: 103, type: !576, scopeLine: 103, flags: DIFlagPrototyped | DIFlagStaticMember, spFlags: 0)
!576 = !DISubroutineType(types: !577)
!577 = !{!117}
!578 = !DISubprogram(name: "_S_propagate_on_move_assign", linkageName: "_ZN9__gnu_cxx14__alloc_traitsISaISt6threadES1_E27_S_propagate_on_move_assignEv", scope: !481, file: !479, line: 106, type: !576, scopeLine: 106, flags: DIFlagPrototyped | DIFlagStaticMember, spFlags: 0)
!579 = !DISubprogram(name: "_S_propagate_on_swap", linkageName: "_ZN9__gnu_cxx14__alloc_traitsISaISt6threadES1_E20_S_propagate_on_swapEv", scope: !481, file: !479, line: 109, type: !576, scopeLine: 109, flags: DIFlagPrototyped | DIFlagStaticMember, spFlags: 0)
!580 = !DISubprogram(name: "_S_always_equal", linkageName: "_ZN9__gnu_cxx14__alloc_traitsISaISt6threadES1_E15_S_always_equalEv", scope: !481, file: !479, line: 112, type: !576, scopeLine: 112, flags: DIFlagPrototyped | DIFlagStaticMember, spFlags: 0)
!581 = !DISubprogram(name: "_S_nothrow_move", linkageName: "_ZN9__gnu_cxx14__alloc_traitsISaISt6threadES1_E15_S_nothrow_moveEv", scope: !481, file: !479, line: 115, type: !576, scopeLine: 115, flags: DIFlagPrototyped | DIFlagStaticMember, spFlags: 0)
!582 = !{!568, !583}
!583 = !DITemplateTypeParameter(type: !71, defaulted: true)
!584 = !DIDerivedType(tag: DW_TAG_typedef, name: "rebind_alloc<std::thread>", scope: !484, file: !485, line: 429, baseType: !493)
!585 = !DIDerivedType(tag: DW_TAG_inheritance, scope: !474, baseType: !586, extraData: i32 0)
!586 = distinct !DICompositeType(tag: DW_TAG_structure_type, name: "_Vector_impl_data", scope: !471, file: !64, line: 88, size: 192, flags: DIFlagTypePassByReference | DIFlagNonTrivial, elements: !587, identifier: "_ZTSNSt12_Vector_baseISt6threadSaIS0_EE17_Vector_impl_dataE")
!587 = !{!588, !591, !592, !593, !597, !601, !606}
!588 = !DIDerivedType(tag: DW_TAG_member, name: "_M_start", scope: !586, file: !64, line: 90, baseType: !589, size: 64)
!589 = !DIDerivedType(tag: DW_TAG_typedef, name: "pointer", scope: !471, file: !64, line: 86, baseType: !590)
!590 = !DIDerivedType(tag: DW_TAG_typedef, name: "pointer", scope: !481, file: !479, line: 59, baseType: !490)
!591 = !DIDerivedType(tag: DW_TAG_member, name: "_M_finish", scope: !586, file: !64, line: 91, baseType: !589, size: 64, offset: 64)
!592 = !DIDerivedType(tag: DW_TAG_member, name: "_M_end_of_storage", scope: !586, file: !64, line: 92, baseType: !589, size: 64, offset: 128)
!593 = !DISubprogram(name: "_Vector_impl_data", scope: !586, file: !64, line: 94, type: !594, scopeLine: 94, flags: DIFlagPrototyped, spFlags: 0)
!594 = !DISubroutineType(types: !595)
!595 = !{null, !596}
!596 = !DIDerivedType(tag: DW_TAG_pointer_type, baseType: !586, size: 64, flags: DIFlagArtificial | DIFlagObjectPointer)
!597 = !DISubprogram(name: "_Vector_impl_data", scope: !586, file: !64, line: 99, type: !598, scopeLine: 99, flags: DIFlagPrototyped, spFlags: 0)
!598 = !DISubroutineType(types: !599)
!599 = !{null, !596, !600}
!600 = !DIDerivedType(tag: DW_TAG_rvalue_reference_type, baseType: !586, size: 64)
!601 = !DISubprogram(name: "_M_copy_data", linkageName: "_ZNSt12_Vector_baseISt6threadSaIS0_EE17_Vector_impl_data12_M_copy_dataERKS3_", scope: !586, file: !64, line: 106, type: !602, scopeLine: 106, flags: DIFlagPrototyped, spFlags: 0)
!602 = !DISubroutineType(types: !603)
!603 = !{null, !596, !604}
!604 = !DIDerivedType(tag: DW_TAG_reference_type, baseType: !605, size: 64)
!605 = !DIDerivedType(tag: DW_TAG_const_type, baseType: !586)
!606 = !DISubprogram(name: "_M_swap_data", linkageName: "_ZNSt12_Vector_baseISt6threadSaIS0_EE17_Vector_impl_data12_M_swap_dataERS3_", scope: !586, file: !64, line: 114, type: !607, scopeLine: 114, flags: DIFlagPrototyped, spFlags: 0)
!607 = !DISubroutineType(types: !608)
!608 = !{null, !596, !609}
!609 = !DIDerivedType(tag: DW_TAG_reference_type, baseType: !586, size: 64)
!610 = !DISubprogram(name: "_Vector_impl", scope: !474, file: !64, line: 128, type: !611, scopeLine: 128, flags: DIFlagPrototyped, spFlags: 0)
!611 = !DISubroutineType(types: !612)
!612 = !{null, !613}
!613 = !DIDerivedType(tag: DW_TAG_pointer_type, baseType: !474, size: 64, flags: DIFlagArtificial | DIFlagObjectPointer)
!614 = !DISubprogram(name: "_Vector_impl", scope: !474, file: !64, line: 133, type: !615, scopeLine: 133, flags: DIFlagPrototyped, spFlags: 0)
!615 = !DISubroutineType(types: !616)
!616 = !{null, !613, !617}
!617 = !DIDerivedType(tag: DW_TAG_reference_type, baseType: !618, size: 64)
!618 = !DIDerivedType(tag: DW_TAG_const_type, baseType: !477)
!619 = !DISubprogram(name: "_Vector_impl", scope: !474, file: !64, line: 140, type: !620, scopeLine: 140, flags: DIFlagPrototyped, spFlags: 0)
!620 = !DISubroutineType(types: !621)
!621 = !{null, !613, !622}
!622 = !DIDerivedType(tag: DW_TAG_rvalue_reference_type, baseType: !474, size: 64)
!623 = !DISubprogram(name: "_Vector_impl", scope: !474, file: !64, line: 144, type: !624, scopeLine: 144, flags: DIFlagPrototyped, spFlags: 0)
!624 = !DISubroutineType(types: !625)
!625 = !{null, !613, !626}
!626 = !DIDerivedType(tag: DW_TAG_rvalue_reference_type, baseType: !477, size: 64)
!627 = !DISubprogram(name: "_Vector_impl", scope: !474, file: !64, line: 148, type: !628, scopeLine: 148, flags: DIFlagPrototyped, spFlags: 0)
!628 = !DISubroutineType(types: !629)
!629 = !{null, !613, !626, !622}
!630 = !DISubprogram(name: "_M_get_Tp_allocator", linkageName: "_ZNSt12_Vector_baseISt6threadSaIS0_EE19_M_get_Tp_allocatorEv", scope: !471, file: !64, line: 273, type: !631, scopeLine: 273, flags: DIFlagPrototyped, spFlags: 0)
!631 = !DISubroutineType(types: !632)
!632 = !{!633, !634}
!633 = !DIDerivedType(tag: DW_TAG_reference_type, baseType: !477, size: 64)
!634 = !DIDerivedType(tag: DW_TAG_pointer_type, baseType: !471, size: 64, flags: DIFlagArtificial | DIFlagObjectPointer)
!635 = !DISubprogram(name: "_M_get_Tp_allocator", linkageName: "_ZNKSt12_Vector_baseISt6threadSaIS0_EE19_M_get_Tp_allocatorEv", scope: !471, file: !64, line: 277, type: !636, scopeLine: 277, flags: DIFlagPrototyped, spFlags: 0)
!636 = !DISubroutineType(types: !637)
!637 = !{!617, !638}
!638 = !DIDerivedType(tag: DW_TAG_pointer_type, baseType: !639, size: 64, flags: DIFlagArtificial | DIFlagObjectPointer)
!639 = !DIDerivedType(tag: DW_TAG_const_type, baseType: !471)
!640 = !DISubprogram(name: "get_allocator", linkageName: "_ZNKSt12_Vector_baseISt6threadSaIS0_EE13get_allocatorEv", scope: !471, file: !64, line: 281, type: !641, scopeLine: 281, flags: DIFlagPrototyped, spFlags: 0)
!641 = !DISubroutineType(types: !642)
!642 = !{!643, !638}
!643 = !DIDerivedType(tag: DW_TAG_typedef, name: "allocator_type", scope: !471, file: !64, line: 270, baseType: !493)
!644 = !DISubprogram(name: "_Vector_base", scope: !471, file: !64, line: 285, type: !645, scopeLine: 285, flags: DIFlagPrototyped, spFlags: 0)
!645 = !DISubroutineType(types: !646)
!646 = !{null, !634}
!647 = !DISubprogram(name: "_Vector_base", scope: !471, file: !64, line: 290, type: !648, scopeLine: 290, flags: DIFlagPrototyped, spFlags: 0)
!648 = !DISubroutineType(types: !649)
!649 = !{null, !634, !650}
!650 = !DIDerivedType(tag: DW_TAG_reference_type, baseType: !651, size: 64)
!651 = !DIDerivedType(tag: DW_TAG_const_type, baseType: !643)
!652 = !DISubprogram(name: "_Vector_base", scope: !471, file: !64, line: 295, type: !653, scopeLine: 295, flags: DIFlagPrototyped, spFlags: 0)
!653 = !DISubroutineType(types: !654)
!654 = !{null, !634, !65}
!655 = !DISubprogram(name: "_Vector_base", scope: !471, file: !64, line: 300, type: !656, scopeLine: 300, flags: DIFlagPrototyped, spFlags: 0)
!656 = !DISubroutineType(types: !657)
!657 = !{null, !634, !65, !650}
!658 = !DISubprogram(name: "_Vector_base", scope: !471, file: !64, line: 305, type: !659, scopeLine: 305, flags: DIFlagPrototyped, spFlags: 0)
!659 = !DISubroutineType(types: !660)
!660 = !{null, !634, !661}
!661 = !DIDerivedType(tag: DW_TAG_rvalue_reference_type, baseType: !471, size: 64)
!662 = !DISubprogram(name: "_Vector_base", scope: !471, file: !64, line: 309, type: !663, scopeLine: 309, flags: DIFlagPrototyped, spFlags: 0)
!663 = !DISubroutineType(types: !664)
!664 = !{null, !634, !626}
!665 = !DISubprogram(name: "_Vector_base", scope: !471, file: !64, line: 312, type: !666, scopeLine: 312, flags: DIFlagPrototyped, spFlags: 0)
!666 = !DISubroutineType(types: !667)
!667 = !{null, !634, !661, !650}
!668 = !DISubprogram(name: "_Vector_base", scope: !471, file: !64, line: 325, type: !669, scopeLine: 325, flags: DIFlagPrototyped, spFlags: 0)
!669 = !DISubroutineType(types: !670)
!670 = !{null, !634, !650, !661}
!671 = !DISubprogram(name: "~_Vector_base", scope: !471, file: !64, line: 330, type: !645, scopeLine: 330, flags: DIFlagPrototyped, spFlags: 0)
!672 = !DISubprogram(name: "_M_allocate", linkageName: "_ZNSt12_Vector_baseISt6threadSaIS0_EE11_M_allocateEm", scope: !471, file: !64, line: 340, type: !673, scopeLine: 340, flags: DIFlagPrototyped, spFlags: 0)
!673 = !DISubroutineType(types: !674)
!674 = !{!589, !634, !65}
!675 = !DISubprogram(name: "_M_deallocate", linkageName: "_ZNSt12_Vector_baseISt6threadSaIS0_EE13_M_deallocateEPS0_m", scope: !471, file: !64, line: 347, type: !676, scopeLine: 347, flags: DIFlagPrototyped, spFlags: 0)
!676 = !DISubroutineType(types: !677)
!677 = !{null, !634, !589, !65}
!678 = !DISubprogram(name: "_M_create_storage", linkageName: "_ZNSt12_Vector_baseISt6threadSaIS0_EE17_M_create_storageEm", scope: !471, file: !64, line: 356, type: !653, scopeLine: 356, flags: DIFlagProtected | DIFlagPrototyped, spFlags: 0)
!679 = !{!535, !568}
!680 = !DISubprogram(name: "_S_nothrow_relocate", linkageName: "_ZNSt6vectorISt6threadSaIS0_EE19_S_nothrow_relocateESt17integral_constantIbLb1EE", scope: !468, file: !64, line: 428, type: !681, scopeLine: 428, flags: DIFlagPrototyped | DIFlagStaticMember, spFlags: 0)
!681 = !DISubroutineType(types: !682)
!682 = !{!117, !683}
!683 = !DIDerivedType(tag: DW_TAG_typedef, name: "true_type", scope: !2, file: !47, line: 75, baseType: !684)
!684 = distinct !DICompositeType(tag: DW_TAG_structure_type, name: "integral_constant<bool, true>", scope: !2, file: !47, line: 57, size: 8, flags: DIFlagTypePassByValue, elements: !685, templateParams: !694, identifier: "_ZTSSt17integral_constantIbLb1EE")
!685 = !{!686, !688}
!686 = !DIDerivedType(tag: DW_TAG_member, name: "value", scope: !684, file: !47, line: 59, baseType: !687, flags: DIFlagStaticMember, extraData: i1 true)
!687 = !DIDerivedType(tag: DW_TAG_const_type, baseType: !117)
!688 = !DISubprogram(name: "operator bool", linkageName: "_ZNKSt17integral_constantIbLb1EEcvbEv", scope: !684, file: !47, line: 62, type: !689, scopeLine: 62, flags: DIFlagPrototyped, spFlags: 0)
!689 = !DISubroutineType(types: !690)
!690 = !{!691, !692}
!691 = !DIDerivedType(tag: DW_TAG_typedef, name: "value_type", scope: !684, file: !47, line: 60, baseType: !117)
!692 = !DIDerivedType(tag: DW_TAG_pointer_type, baseType: !693, size: 64, flags: DIFlagArtificial | DIFlagObjectPointer)
!693 = !DIDerivedType(tag: DW_TAG_const_type, baseType: !684)
!694 = !{!695, !696}
!695 = !DITemplateTypeParameter(name: "_Tp", type: !117)
!696 = !DITemplateValueParameter(name: "__v", type: !117, value: i8 1)
!697 = !DISubprogram(name: "_S_nothrow_relocate", linkageName: "_ZNSt6vectorISt6threadSaIS0_EE19_S_nothrow_relocateESt17integral_constantIbLb0EE", scope: !468, file: !64, line: 437, type: !698, scopeLine: 437, flags: DIFlagPrototyped | DIFlagStaticMember, spFlags: 0)
!698 = !DISubroutineType(types: !699)
!699 = !{!117, !700}
!700 = !DIDerivedType(tag: DW_TAG_typedef, name: "false_type", scope: !2, file: !47, line: 78, baseType: !701)
!701 = distinct !DICompositeType(tag: DW_TAG_structure_type, name: "integral_constant<bool, false>", scope: !2, file: !47, line: 57, size: 8, flags: DIFlagTypePassByValue, elements: !702, templateParams: !710, identifier: "_ZTSSt17integral_constantIbLb0EE")
!702 = !{!703, !704}
!703 = !DIDerivedType(tag: DW_TAG_member, name: "value", scope: !701, file: !47, line: 59, baseType: !687, flags: DIFlagStaticMember, extraData: i1 false)
!704 = !DISubprogram(name: "operator bool", linkageName: "_ZNKSt17integral_constantIbLb0EEcvbEv", scope: !701, file: !47, line: 62, type: !705, scopeLine: 62, flags: DIFlagPrototyped, spFlags: 0)
!705 = !DISubroutineType(types: !706)
!706 = !{!707, !708}
!707 = !DIDerivedType(tag: DW_TAG_typedef, name: "value_type", scope: !701, file: !47, line: 60, baseType: !117)
!708 = !DIDerivedType(tag: DW_TAG_pointer_type, baseType: !709, size: 64, flags: DIFlagArtificial | DIFlagObjectPointer)
!709 = !DIDerivedType(tag: DW_TAG_const_type, baseType: !701)
!710 = !{!695, !711}
!711 = !DITemplateValueParameter(name: "__v", type: !117, value: i8 0)
!712 = !DISubprogram(name: "_S_use_relocate", linkageName: "_ZNSt6vectorISt6threadSaIS0_EE15_S_use_relocateEv", scope: !468, file: !64, line: 441, type: !576, scopeLine: 441, flags: DIFlagPrototyped | DIFlagStaticMember, spFlags: 0)
!713 = !DISubprogram(name: "_S_do_relocate", linkageName: "_ZNSt6vectorISt6threadSaIS0_EE14_S_do_relocateEPS0_S3_S3_RS1_St17integral_constantIbLb1EE", scope: !468, file: !64, line: 450, type: !714, scopeLine: 450, flags: DIFlagPrototyped | DIFlagStaticMember, spFlags: 0)
!714 = !DISubroutineType(types: !715)
!715 = !{!716, !716, !716, !716, !717, !683}
!716 = !DIDerivedType(tag: DW_TAG_typedef, name: "pointer", scope: !468, file: !64, line: 412, baseType: !589, flags: DIFlagPublic)
!717 = !DIDerivedType(tag: DW_TAG_reference_type, baseType: !718, size: 64)
!718 = !DIDerivedType(tag: DW_TAG_typedef, name: "_Tp_alloc_type", scope: !468, file: !64, line: 407, baseType: !477)
!719 = !DISubprogram(name: "_S_do_relocate", linkageName: "_ZNSt6vectorISt6threadSaIS0_EE14_S_do_relocateEPS0_S3_S3_RS1_St17integral_constantIbLb0EE", scope: !468, file: !64, line: 457, type: !720, scopeLine: 457, flags: DIFlagPrototyped | DIFlagStaticMember, spFlags: 0)
!720 = !DISubroutineType(types: !721)
!721 = !{!716, !716, !716, !716, !717, !700}
!722 = !DISubprogram(name: "_S_relocate", linkageName: "_ZNSt6vectorISt6threadSaIS0_EE11_S_relocateEPS0_S3_S3_RS1_", scope: !468, file: !64, line: 462, type: !723, scopeLine: 462, flags: DIFlagPrototyped | DIFlagStaticMember, spFlags: 0)
!723 = !DISubroutineType(types: !724)
!724 = !{!716, !716, !716, !716, !717}
!725 = !DISubprogram(name: "vector", scope: !468, file: !64, line: 484, type: !726, scopeLine: 484, flags: DIFlagPublic | DIFlagPrototyped, spFlags: 0)
!726 = !DISubroutineType(types: !727)
!727 = !{null, !728}
!728 = !DIDerivedType(tag: DW_TAG_pointer_type, baseType: !468, size: 64, flags: DIFlagArtificial | DIFlagObjectPointer)
!729 = !DISubprogram(name: "vector", scope: !468, file: !64, line: 494, type: !730, scopeLine: 494, flags: DIFlagPublic | DIFlagExplicit | DIFlagPrototyped, spFlags: 0)
!730 = !DISubroutineType(types: !731)
!731 = !{null, !728, !732}
!732 = !DIDerivedType(tag: DW_TAG_reference_type, baseType: !733, size: 64)
!733 = !DIDerivedType(tag: DW_TAG_const_type, baseType: !734)
!734 = !DIDerivedType(tag: DW_TAG_typedef, name: "allocator_type", scope: !468, file: !64, line: 423, baseType: !493, flags: DIFlagPublic)
!735 = !DISubprogram(name: "vector", scope: !468, file: !64, line: 507, type: !736, scopeLine: 507, flags: DIFlagPublic | DIFlagExplicit | DIFlagPrototyped, spFlags: 0)
!736 = !DISubroutineType(types: !737)
!737 = !{null, !728, !63, !732}
!738 = !DISubprogram(name: "vector", scope: !468, file: !64, line: 519, type: !739, scopeLine: 519, flags: DIFlagPublic | DIFlagPrototyped, spFlags: 0)
!739 = !DISubroutineType(types: !740)
!740 = !{null, !728, !63, !741, !732}
!741 = !DIDerivedType(tag: DW_TAG_reference_type, baseType: !742, size: 64)
!742 = !DIDerivedType(tag: DW_TAG_const_type, baseType: !743)
!743 = !DIDerivedType(tag: DW_TAG_typedef, name: "value_type", scope: !468, file: !64, line: 411, baseType: !71, flags: DIFlagPublic)
!744 = !DISubprogram(name: "vector", scope: !468, file: !64, line: 550, type: !745, scopeLine: 550, flags: DIFlagPublic | DIFlagPrototyped, spFlags: 0)
!745 = !DISubroutineType(types: !746)
!746 = !{null, !728, !747}
!747 = !DIDerivedType(tag: DW_TAG_reference_type, baseType: !748, size: 64)
!748 = !DIDerivedType(tag: DW_TAG_const_type, baseType: !468)
!749 = !DISubprogram(name: "vector", scope: !468, file: !64, line: 569, type: !750, scopeLine: 569, flags: DIFlagPublic | DIFlagPrototyped, spFlags: 0)
!750 = !DISubroutineType(types: !751)
!751 = !{null, !728, !752}
!752 = !DIDerivedType(tag: DW_TAG_rvalue_reference_type, baseType: !468, size: 64)
!753 = !DISubprogram(name: "vector", scope: !468, file: !64, line: 572, type: !754, scopeLine: 572, flags: DIFlagPublic | DIFlagPrototyped, spFlags: 0)
!754 = !DISubroutineType(types: !755)
!755 = !{null, !728, !747, !732}
!756 = !DISubprogram(name: "vector", scope: !468, file: !64, line: 582, type: !757, scopeLine: 582, flags: DIFlagPrototyped, spFlags: 0)
!757 = !DISubroutineType(types: !758)
!758 = !{null, !728, !752, !732, !683}
!759 = !DISubprogram(name: "vector", scope: !468, file: !64, line: 586, type: !760, scopeLine: 586, flags: DIFlagPrototyped, spFlags: 0)
!760 = !DISubroutineType(types: !761)
!761 = !{null, !728, !752, !732, !700}
!762 = !DISubprogram(name: "vector", scope: !468, file: !64, line: 604, type: !763, scopeLine: 604, flags: DIFlagPublic | DIFlagPrototyped, spFlags: 0)
!763 = !DISubroutineType(types: !764)
!764 = !{null, !728, !752, !732}
!765 = !DISubprogram(name: "vector", scope: !468, file: !64, line: 622, type: !766, scopeLine: 622, flags: DIFlagPublic | DIFlagPrototyped, spFlags: 0)
!766 = !DISubroutineType(types: !767)
!767 = !{null, !728, !768, !732}
!768 = !DICompositeType(tag: DW_TAG_class_type, name: "initializer_list<std::thread>", scope: !2, file: !769, line: 47, flags: DIFlagFwdDecl | DIFlagNonTrivial, identifier: "_ZTSSt16initializer_listISt6threadE")
!769 = !DIFile(filename: "/usr/lib/gcc/x86_64-linux-gnu/9/../../../../include/c++/9/initializer_list", directory: "")
!770 = !DISubprogram(name: "~vector", scope: !468, file: !64, line: 675, type: !726, scopeLine: 675, flags: DIFlagPublic | DIFlagPrototyped, spFlags: 0)
!771 = !DISubprogram(name: "operator=", linkageName: "_ZNSt6vectorISt6threadSaIS0_EEaSERKS2_", scope: !468, file: !64, line: 692, type: !772, scopeLine: 692, flags: DIFlagPublic | DIFlagPrototyped, spFlags: 0)
!772 = !DISubroutineType(types: !773)
!773 = !{!774, !728, !747}
!774 = !DIDerivedType(tag: DW_TAG_reference_type, baseType: !468, size: 64)
!775 = !DISubprogram(name: "operator=", linkageName: "_ZNSt6vectorISt6threadSaIS0_EEaSEOS2_", scope: !468, file: !64, line: 706, type: !776, scopeLine: 706, flags: DIFlagPublic | DIFlagPrototyped, spFlags: 0)
!776 = !DISubroutineType(types: !777)
!777 = !{!774, !728, !752}
!778 = !DISubprogram(name: "operator=", linkageName: "_ZNSt6vectorISt6threadSaIS0_EEaSESt16initializer_listIS0_E", scope: !468, file: !64, line: 727, type: !779, scopeLine: 727, flags: DIFlagPublic | DIFlagPrototyped, spFlags: 0)
!779 = !DISubroutineType(types: !780)
!780 = !{!774, !728, !768}
!781 = !DISubprogram(name: "assign", linkageName: "_ZNSt6vectorISt6threadSaIS0_EE6assignEmRKS0_", scope: !468, file: !64, line: 746, type: !782, scopeLine: 746, flags: DIFlagPublic | DIFlagPrototyped, spFlags: 0)
!782 = !DISubroutineType(types: !783)
!783 = !{null, !728, !63, !741}
!784 = !DISubprogram(name: "assign", linkageName: "_ZNSt6vectorISt6threadSaIS0_EE6assignESt16initializer_listIS0_E", scope: !468, file: !64, line: 791, type: !785, scopeLine: 791, flags: DIFlagPublic | DIFlagPrototyped, spFlags: 0)
!785 = !DISubroutineType(types: !786)
!786 = !{null, !728, !768}
!787 = !DISubprogram(name: "begin", linkageName: "_ZNSt6vectorISt6threadSaIS0_EE5beginEv", scope: !468, file: !64, line: 808, type: !788, scopeLine: 808, flags: DIFlagPublic | DIFlagPrototyped, spFlags: 0)
!788 = !DISubroutineType(types: !789)
!789 = !{!790, !728}
!790 = !DIDerivedType(tag: DW_TAG_typedef, name: "iterator", scope: !468, file: !64, line: 416, baseType: !791, flags: DIFlagPublic)
!791 = distinct !DICompositeType(tag: DW_TAG_class_type, name: "__normal_iterator<std::thread *, std::vector<std::thread, std::allocator<std::thread> > >", scope: !14, file: !792, line: 784, size: 64, flags: DIFlagTypePassByValue | DIFlagNonTrivial, elements: !793, templateParams: !847, identifier: "_ZTSN9__gnu_cxx17__normal_iteratorIPSt6threadSt6vectorIS1_SaIS1_EEEE")
!792 = !DIFile(filename: "/usr/lib/gcc/x86_64-linux-gnu/9/../../../../include/c++/9/bits/stl_iterator.h", directory: "", checksumkind: CSK_MD5, checksum: "96320c39582905b0a2fa52e95bb15efe")
!793 = !{!794, !795, !799, !804, !815, !820, !824, !827, !828, !829, !836, !839, !842, !843, !844}
!794 = !DIDerivedType(tag: DW_TAG_member, name: "_M_current", scope: !791, file: !792, line: 787, baseType: !70, size: 64, flags: DIFlagProtected)
!795 = !DISubprogram(name: "__normal_iterator", scope: !791, file: !792, line: 799, type: !796, scopeLine: 799, flags: DIFlagPublic | DIFlagPrototyped, spFlags: 0)
!796 = !DISubroutineType(types: !797)
!797 = !{null, !798}
!798 = !DIDerivedType(tag: DW_TAG_pointer_type, baseType: !791, size: 64, flags: DIFlagArtificial | DIFlagObjectPointer)
!799 = !DISubprogram(name: "__normal_iterator", scope: !791, file: !792, line: 803, type: !800, scopeLine: 803, flags: DIFlagPublic | DIFlagExplicit | DIFlagPrototyped, spFlags: 0)
!800 = !DISubroutineType(types: !801)
!801 = !{null, !798, !802}
!802 = !DIDerivedType(tag: DW_TAG_reference_type, baseType: !803, size: 64)
!803 = !DIDerivedType(tag: DW_TAG_const_type, baseType: !70)
!804 = !DISubprogram(name: "operator*", linkageName: "_ZNK9__gnu_cxx17__normal_iteratorIPSt6threadSt6vectorIS1_SaIS1_EEEdeEv", scope: !791, file: !792, line: 816, type: !805, scopeLine: 816, flags: DIFlagPublic | DIFlagPrototyped, spFlags: 0)
!805 = !DISubroutineType(types: !806)
!806 = !{!807, !813}
!807 = !DIDerivedType(tag: DW_TAG_typedef, name: "reference", scope: !791, file: !792, line: 796, baseType: !808, flags: DIFlagPublic)
!808 = !DIDerivedType(tag: DW_TAG_typedef, name: "reference", scope: !810, file: !809, line: 184, baseType: !107)
!809 = !DIFile(filename: "/usr/lib/gcc/x86_64-linux-gnu/9/../../../../include/c++/9/bits/stl_iterator_base_types.h", directory: "")
!810 = distinct !DICompositeType(tag: DW_TAG_structure_type, name: "iterator_traits<std::thread *>", scope: !2, file: !809, line: 178, size: 8, flags: DIFlagTypePassByValue, elements: !49, templateParams: !811, identifier: "_ZTSSt15iterator_traitsIPSt6threadE")
!811 = !{!812}
!812 = !DITemplateTypeParameter(name: "_Iterator", type: !70)
!813 = !DIDerivedType(tag: DW_TAG_pointer_type, baseType: !814, size: 64, flags: DIFlagArtificial | DIFlagObjectPointer)
!814 = !DIDerivedType(tag: DW_TAG_const_type, baseType: !791)
!815 = !DISubprogram(name: "operator->", linkageName: "_ZNK9__gnu_cxx17__normal_iteratorIPSt6threadSt6vectorIS1_SaIS1_EEEptEv", scope: !791, file: !792, line: 820, type: !816, scopeLine: 820, flags: DIFlagPublic | DIFlagPrototyped, spFlags: 0)
!816 = !DISubroutineType(types: !817)
!817 = !{!818, !813}
!818 = !DIDerivedType(tag: DW_TAG_typedef, name: "pointer", scope: !791, file: !792, line: 797, baseType: !819, flags: DIFlagPublic)
!819 = !DIDerivedType(tag: DW_TAG_typedef, name: "pointer", scope: !810, file: !809, line: 183, baseType: !70)
!820 = !DISubprogram(name: "operator++", linkageName: "_ZN9__gnu_cxx17__normal_iteratorIPSt6threadSt6vectorIS1_SaIS1_EEEppEv", scope: !791, file: !792, line: 824, type: !821, scopeLine: 824, flags: DIFlagPublic | DIFlagPrototyped, spFlags: 0)
!821 = !DISubroutineType(types: !822)
!822 = !{!823, !798}
!823 = !DIDerivedType(tag: DW_TAG_reference_type, baseType: !791, size: 64)
!824 = !DISubprogram(name: "operator++", linkageName: "_ZN9__gnu_cxx17__normal_iteratorIPSt6threadSt6vectorIS1_SaIS1_EEEppEi", scope: !791, file: !792, line: 831, type: !825, scopeLine: 831, flags: DIFlagPublic | DIFlagPrototyped, spFlags: 0)
!825 = !DISubroutineType(types: !826)
!826 = !{!791, !798, !36}
!827 = !DISubprogram(name: "operator--", linkageName: "_ZN9__gnu_cxx17__normal_iteratorIPSt6threadSt6vectorIS1_SaIS1_EEEmmEv", scope: !791, file: !792, line: 836, type: !821, scopeLine: 836, flags: DIFlagPublic | DIFlagPrototyped, spFlags: 0)
!828 = !DISubprogram(name: "operator--", linkageName: "_ZN9__gnu_cxx17__normal_iteratorIPSt6threadSt6vectorIS1_SaIS1_EEEmmEi", scope: !791, file: !792, line: 843, type: !825, scopeLine: 843, flags: DIFlagPublic | DIFlagPrototyped, spFlags: 0)
!829 = !DISubprogram(name: "operator[]", linkageName: "_ZNK9__gnu_cxx17__normal_iteratorIPSt6threadSt6vectorIS1_SaIS1_EEEixEl", scope: !791, file: !792, line: 848, type: !830, scopeLine: 848, flags: DIFlagPublic | DIFlagPrototyped, spFlags: 0)
!830 = !DISubroutineType(types: !831)
!831 = !{!807, !813, !832}
!832 = !DIDerivedType(tag: DW_TAG_typedef, name: "difference_type", scope: !791, file: !792, line: 795, baseType: !833, flags: DIFlagPublic)
!833 = !DIDerivedType(tag: DW_TAG_typedef, name: "difference_type", scope: !810, file: !809, line: 182, baseType: !834)
!834 = !DIDerivedType(tag: DW_TAG_typedef, name: "ptrdiff_t", scope: !2, file: !66, line: 259, baseType: !835)
!835 = !DIBasicType(name: "long", size: 64, encoding: DW_ATE_signed)
!836 = !DISubprogram(name: "operator+=", linkageName: "_ZN9__gnu_cxx17__normal_iteratorIPSt6threadSt6vectorIS1_SaIS1_EEEpLEl", scope: !791, file: !792, line: 852, type: !837, scopeLine: 852, flags: DIFlagPublic | DIFlagPrototyped, spFlags: 0)
!837 = !DISubroutineType(types: !838)
!838 = !{!823, !798, !832}
!839 = !DISubprogram(name: "operator+", linkageName: "_ZNK9__gnu_cxx17__normal_iteratorIPSt6threadSt6vectorIS1_SaIS1_EEEplEl", scope: !791, file: !792, line: 856, type: !840, scopeLine: 856, flags: DIFlagPublic | DIFlagPrototyped, spFlags: 0)
!840 = !DISubroutineType(types: !841)
!841 = !{!791, !813, !832}
!842 = !DISubprogram(name: "operator-=", linkageName: "_ZN9__gnu_cxx17__normal_iteratorIPSt6threadSt6vectorIS1_SaIS1_EEEmIEl", scope: !791, file: !792, line: 860, type: !837, scopeLine: 860, flags: DIFlagPublic | DIFlagPrototyped, spFlags: 0)
!843 = !DISubprogram(name: "operator-", linkageName: "_ZNK9__gnu_cxx17__normal_iteratorIPSt6threadSt6vectorIS1_SaIS1_EEEmiEl", scope: !791, file: !792, line: 864, type: !840, scopeLine: 864, flags: DIFlagPublic | DIFlagPrototyped, spFlags: 0)
!844 = !DISubprogram(name: "base", linkageName: "_ZNK9__gnu_cxx17__normal_iteratorIPSt6threadSt6vectorIS1_SaIS1_EEE4baseEv", scope: !791, file: !792, line: 868, type: !845, scopeLine: 868, flags: DIFlagPublic | DIFlagPrototyped, spFlags: 0)
!845 = !DISubroutineType(types: !846)
!846 = !{!802, !813}
!847 = !{!812, !848}
!848 = !DITemplateTypeParameter(name: "_Container", type: !468)
!849 = !DISubprogram(name: "begin", linkageName: "_ZNKSt6vectorISt6threadSaIS0_EE5beginEv", scope: !468, file: !64, line: 817, type: !850, scopeLine: 817, flags: DIFlagPublic | DIFlagPrototyped, spFlags: 0)
!850 = !DISubroutineType(types: !851)
!851 = !{!852, !854}
!852 = !DIDerivedType(tag: DW_TAG_typedef, name: "const_iterator", scope: !468, file: !64, line: 418, baseType: !853, flags: DIFlagPublic)
!853 = !DICompositeType(tag: DW_TAG_class_type, name: "__normal_iterator<const std::thread *, std::vector<std::thread, std::allocator<std::thread> > >", scope: !14, file: !792, line: 784, flags: DIFlagFwdDecl | DIFlagNonTrivial, identifier: "_ZTSN9__gnu_cxx17__normal_iteratorIPKSt6threadSt6vectorIS1_SaIS1_EEEE")
!854 = !DIDerivedType(tag: DW_TAG_pointer_type, baseType: !748, size: 64, flags: DIFlagArtificial | DIFlagObjectPointer)
!855 = !DISubprogram(name: "end", linkageName: "_ZNSt6vectorISt6threadSaIS0_EE3endEv", scope: !468, file: !64, line: 826, type: !788, scopeLine: 826, flags: DIFlagPublic | DIFlagPrototyped, spFlags: 0)
!856 = !DISubprogram(name: "end", linkageName: "_ZNKSt6vectorISt6threadSaIS0_EE3endEv", scope: !468, file: !64, line: 835, type: !850, scopeLine: 835, flags: DIFlagPublic | DIFlagPrototyped, spFlags: 0)
!857 = !DISubprogram(name: "rbegin", linkageName: "_ZNSt6vectorISt6threadSaIS0_EE6rbeginEv", scope: !468, file: !64, line: 844, type: !858, scopeLine: 844, flags: DIFlagPublic | DIFlagPrototyped, spFlags: 0)
!858 = !DISubroutineType(types: !859)
!859 = !{!860, !728}
!860 = !DIDerivedType(tag: DW_TAG_typedef, name: "reverse_iterator", scope: !468, file: !64, line: 420, baseType: !861, flags: DIFlagPublic)
!861 = !DICompositeType(tag: DW_TAG_class_type, name: "reverse_iterator<__gnu_cxx::__normal_iterator<std::thread *, std::vector<std::thread, std::allocator<std::thread> > > >", scope: !2, file: !792, line: 105, flags: DIFlagFwdDecl | DIFlagNonTrivial, identifier: "_ZTSSt16reverse_iteratorIN9__gnu_cxx17__normal_iteratorIPSt6threadSt6vectorIS2_SaIS2_EEEEE")
!862 = !DISubprogram(name: "rbegin", linkageName: "_ZNKSt6vectorISt6threadSaIS0_EE6rbeginEv", scope: !468, file: !64, line: 853, type: !863, scopeLine: 853, flags: DIFlagPublic | DIFlagPrototyped, spFlags: 0)
!863 = !DISubroutineType(types: !864)
!864 = !{!865, !854}
!865 = !DIDerivedType(tag: DW_TAG_typedef, name: "const_reverse_iterator", scope: !468, file: !64, line: 419, baseType: !866, flags: DIFlagPublic)
!866 = !DICompositeType(tag: DW_TAG_class_type, name: "reverse_iterator<__gnu_cxx::__normal_iterator<const std::thread *, std::vector<std::thread, std::allocator<std::thread> > > >", scope: !2, file: !792, line: 105, flags: DIFlagFwdDecl | DIFlagNonTrivial, identifier: "_ZTSSt16reverse_iteratorIN9__gnu_cxx17__normal_iteratorIPKSt6threadSt6vectorIS2_SaIS2_EEEEE")
!867 = !DISubprogram(name: "rend", linkageName: "_ZNSt6vectorISt6threadSaIS0_EE4rendEv", scope: !468, file: !64, line: 862, type: !858, scopeLine: 862, flags: DIFlagPublic | DIFlagPrototyped, spFlags: 0)
!868 = !DISubprogram(name: "rend", linkageName: "_ZNKSt6vectorISt6threadSaIS0_EE4rendEv", scope: !468, file: !64, line: 871, type: !863, scopeLine: 871, flags: DIFlagPublic | DIFlagPrototyped, spFlags: 0)
!869 = !DISubprogram(name: "cbegin", linkageName: "_ZNKSt6vectorISt6threadSaIS0_EE6cbeginEv", scope: !468, file: !64, line: 881, type: !850, scopeLine: 881, flags: DIFlagPublic | DIFlagPrototyped, spFlags: 0)
!870 = !DISubprogram(name: "cend", linkageName: "_ZNKSt6vectorISt6threadSaIS0_EE4cendEv", scope: !468, file: !64, line: 890, type: !850, scopeLine: 890, flags: DIFlagPublic | DIFlagPrototyped, spFlags: 0)
!871 = !DISubprogram(name: "crbegin", linkageName: "_ZNKSt6vectorISt6threadSaIS0_EE7crbeginEv", scope: !468, file: !64, line: 899, type: !863, scopeLine: 899, flags: DIFlagPublic | DIFlagPrototyped, spFlags: 0)
!872 = !DISubprogram(name: "crend", linkageName: "_ZNKSt6vectorISt6threadSaIS0_EE5crendEv", scope: !468, file: !64, line: 908, type: !863, scopeLine: 908, flags: DIFlagPublic | DIFlagPrototyped, spFlags: 0)
!873 = !DISubprogram(name: "size", linkageName: "_ZNKSt6vectorISt6threadSaIS0_EE4sizeEv", scope: !468, file: !64, line: 915, type: !874, scopeLine: 915, flags: DIFlagPublic | DIFlagPrototyped, spFlags: 0)
!874 = !DISubroutineType(types: !875)
!875 = !{!63, !854}
!876 = !DISubprogram(name: "max_size", linkageName: "_ZNKSt6vectorISt6threadSaIS0_EE8max_sizeEv", scope: !468, file: !64, line: 920, type: !874, scopeLine: 920, flags: DIFlagPublic | DIFlagPrototyped, spFlags: 0)
!877 = !DISubprogram(name: "resize", linkageName: "_ZNSt6vectorISt6threadSaIS0_EE6resizeEm", scope: !468, file: !64, line: 934, type: !878, scopeLine: 934, flags: DIFlagPublic | DIFlagPrototyped, spFlags: 0)
!878 = !DISubroutineType(types: !879)
!879 = !{null, !728, !63}
!880 = !DISubprogram(name: "resize", linkageName: "_ZNSt6vectorISt6threadSaIS0_EE6resizeEmRKS0_", scope: !468, file: !64, line: 954, type: !782, scopeLine: 954, flags: DIFlagPublic | DIFlagPrototyped, spFlags: 0)
!881 = !DISubprogram(name: "shrink_to_fit", linkageName: "_ZNSt6vectorISt6threadSaIS0_EE13shrink_to_fitEv", scope: !468, file: !64, line: 986, type: !726, scopeLine: 986, flags: DIFlagPublic | DIFlagPrototyped, spFlags: 0)
!882 = !DISubprogram(name: "capacity", linkageName: "_ZNKSt6vectorISt6threadSaIS0_EE8capacityEv", scope: !468, file: !64, line: 995, type: !874, scopeLine: 995, flags: DIFlagPublic | DIFlagPrototyped, spFlags: 0)
!883 = !DISubprogram(name: "empty", linkageName: "_ZNKSt6vectorISt6threadSaIS0_EE5emptyEv", scope: !468, file: !64, line: 1004, type: !884, scopeLine: 1004, flags: DIFlagPublic | DIFlagPrototyped, spFlags: 0)
!884 = !DISubroutineType(types: !885)
!885 = !{!117, !854}
!886 = !DISubprogram(name: "reserve", linkageName: "_ZNSt6vectorISt6threadSaIS0_EE7reserveEm", scope: !468, file: !64, line: 1025, type: !878, scopeLine: 1025, flags: DIFlagPublic | DIFlagPrototyped, spFlags: 0)
!887 = !DISubprogram(name: "operator[]", linkageName: "_ZNSt6vectorISt6threadSaIS0_EEixEm", scope: !468, file: !64, line: 1040, type: !888, scopeLine: 1040, flags: DIFlagPublic | DIFlagPrototyped, spFlags: 0)
!888 = !DISubroutineType(types: !889)
!889 = !{!890, !728, !63}
!890 = !DIDerivedType(tag: DW_TAG_typedef, name: "reference", scope: !468, file: !64, line: 414, baseType: !891, flags: DIFlagPublic)
!891 = !DIDerivedType(tag: DW_TAG_typedef, name: "reference", scope: !481, file: !479, line: 64, baseType: !892)
!892 = !DIDerivedType(tag: DW_TAG_reference_type, baseType: !893, size: 64)
!893 = !DIDerivedType(tag: DW_TAG_typedef, name: "value_type", scope: !481, file: !479, line: 58, baseType: !894)
!894 = !DIDerivedType(tag: DW_TAG_typedef, name: "value_type", scope: !484, file: !485, line: 396, baseType: !71)
!895 = !DISubprogram(name: "operator[]", linkageName: "_ZNKSt6vectorISt6threadSaIS0_EEixEm", scope: !468, file: !64, line: 1058, type: !896, scopeLine: 1058, flags: DIFlagPublic | DIFlagPrototyped, spFlags: 0)
!896 = !DISubroutineType(types: !897)
!897 = !{!898, !854, !63}
!898 = !DIDerivedType(tag: DW_TAG_typedef, name: "const_reference", scope: !468, file: !64, line: 415, baseType: !899, flags: DIFlagPublic)
!899 = !DIDerivedType(tag: DW_TAG_typedef, name: "const_reference", scope: !481, file: !479, line: 65, baseType: !900)
!900 = !DIDerivedType(tag: DW_TAG_reference_type, baseType: !901, size: 64)
!901 = !DIDerivedType(tag: DW_TAG_const_type, baseType: !893)
!902 = !DISubprogram(name: "_M_range_check", linkageName: "_ZNKSt6vectorISt6threadSaIS0_EE14_M_range_checkEm", scope: !468, file: !64, line: 1067, type: !903, scopeLine: 1067, flags: DIFlagProtected | DIFlagPrototyped, spFlags: 0)
!903 = !DISubroutineType(types: !904)
!904 = !{null, !854, !63}
!905 = !DISubprogram(name: "at", linkageName: "_ZNSt6vectorISt6threadSaIS0_EE2atEm", scope: !468, file: !64, line: 1089, type: !888, scopeLine: 1089, flags: DIFlagPublic | DIFlagPrototyped, spFlags: 0)
!906 = !DISubprogram(name: "at", linkageName: "_ZNKSt6vectorISt6threadSaIS0_EE2atEm", scope: !468, file: !64, line: 1107, type: !896, scopeLine: 1107, flags: DIFlagPublic | DIFlagPrototyped, spFlags: 0)
!907 = !DISubprogram(name: "front", linkageName: "_ZNSt6vectorISt6threadSaIS0_EE5frontEv", scope: !468, file: !64, line: 1118, type: !908, scopeLine: 1118, flags: DIFlagPublic | DIFlagPrototyped, spFlags: 0)
!908 = !DISubroutineType(types: !909)
!909 = !{!890, !728}
!910 = !DISubprogram(name: "front", linkageName: "_ZNKSt6vectorISt6threadSaIS0_EE5frontEv", scope: !468, file: !64, line: 1129, type: !911, scopeLine: 1129, flags: DIFlagPublic | DIFlagPrototyped, spFlags: 0)
!911 = !DISubroutineType(types: !912)
!912 = !{!898, !854}
!913 = !DISubprogram(name: "back", linkageName: "_ZNSt6vectorISt6threadSaIS0_EE4backEv", scope: !468, file: !64, line: 1140, type: !908, scopeLine: 1140, flags: DIFlagPublic | DIFlagPrototyped, spFlags: 0)
!914 = !DISubprogram(name: "back", linkageName: "_ZNKSt6vectorISt6threadSaIS0_EE4backEv", scope: !468, file: !64, line: 1151, type: !911, scopeLine: 1151, flags: DIFlagPublic | DIFlagPrototyped, spFlags: 0)
!915 = !DISubprogram(name: "data", linkageName: "_ZNSt6vectorISt6threadSaIS0_EE4dataEv", scope: !468, file: !64, line: 1165, type: !916, scopeLine: 1165, flags: DIFlagPublic | DIFlagPrototyped, spFlags: 0)
!916 = !DISubroutineType(types: !917)
!917 = !{!70, !728}
!918 = !DISubprogram(name: "data", linkageName: "_ZNKSt6vectorISt6threadSaIS0_EE4dataEv", scope: !468, file: !64, line: 1169, type: !919, scopeLine: 1169, flags: DIFlagPublic | DIFlagPrototyped, spFlags: 0)
!919 = !DISubroutineType(types: !920)
!920 = !{!522, !854}
!921 = !DISubprogram(name: "push_back", linkageName: "_ZNSt6vectorISt6threadSaIS0_EE9push_backERKS0_", scope: !468, file: !64, line: 1184, type: !922, scopeLine: 1184, flags: DIFlagPublic | DIFlagPrototyped, spFlags: 0)
!922 = !DISubroutineType(types: !923)
!923 = !{null, !728, !741}
!924 = !DISubprogram(name: "push_back", linkageName: "_ZNSt6vectorISt6threadSaIS0_EE9push_backEOS0_", scope: !468, file: !64, line: 1200, type: !925, scopeLine: 1200, flags: DIFlagPublic | DIFlagPrototyped, spFlags: 0)
!925 = !DISubroutineType(types: !926)
!926 = !{null, !728, !927}
!927 = !DIDerivedType(tag: DW_TAG_rvalue_reference_type, baseType: !743, size: 64)
!928 = !DISubprogram(name: "pop_back", linkageName: "_ZNSt6vectorISt6threadSaIS0_EE8pop_backEv", scope: !468, file: !64, line: 1222, type: !726, scopeLine: 1222, flags: DIFlagPublic | DIFlagPrototyped, spFlags: 0)
!929 = !DISubprogram(name: "insert", linkageName: "_ZNSt6vectorISt6threadSaIS0_EE6insertEN9__gnu_cxx17__normal_iteratorIPKS0_S2_EERS5_", scope: !468, file: !64, line: 1260, type: !930, scopeLine: 1260, flags: DIFlagPublic | DIFlagPrototyped, spFlags: 0)
!930 = !DISubroutineType(types: !931)
!931 = !{!790, !728, !852, !741}
!932 = !DISubprogram(name: "insert", linkageName: "_ZNSt6vectorISt6threadSaIS0_EE6insertEN9__gnu_cxx17__normal_iteratorIPKS0_S2_EEOS0_", scope: !468, file: !64, line: 1290, type: !933, scopeLine: 1290, flags: DIFlagPublic | DIFlagPrototyped, spFlags: 0)
!933 = !DISubroutineType(types: !934)
!934 = !{!790, !728, !852, !927}
!935 = !DISubprogram(name: "insert", linkageName: "_ZNSt6vectorISt6threadSaIS0_EE6insertEN9__gnu_cxx17__normal_iteratorIPKS0_S2_EESt16initializer_listIS0_E", scope: !468, file: !64, line: 1307, type: !936, scopeLine: 1307, flags: DIFlagPublic | DIFlagPrototyped, spFlags: 0)
!936 = !DISubroutineType(types: !937)
!937 = !{!790, !728, !852, !768}
!938 = !DISubprogram(name: "insert", linkageName: "_ZNSt6vectorISt6threadSaIS0_EE6insertEN9__gnu_cxx17__normal_iteratorIPKS0_S2_EEmRS5_", scope: !468, file: !64, line: 1332, type: !939, scopeLine: 1332, flags: DIFlagPublic | DIFlagPrototyped, spFlags: 0)
!939 = !DISubroutineType(types: !940)
!940 = !{!790, !728, !852, !63, !741}
!941 = !DISubprogram(name: "erase", linkageName: "_ZNSt6vectorISt6threadSaIS0_EE5eraseEN9__gnu_cxx17__normal_iteratorIPKS0_S2_EE", scope: !468, file: !64, line: 1427, type: !942, scopeLine: 1427, flags: DIFlagPublic | DIFlagPrototyped, spFlags: 0)
!942 = !DISubroutineType(types: !943)
!943 = !{!790, !728, !852}
!944 = !DISubprogram(name: "erase", linkageName: "_ZNSt6vectorISt6threadSaIS0_EE5eraseEN9__gnu_cxx17__normal_iteratorIPKS0_S2_EES7_", scope: !468, file: !64, line: 1454, type: !945, scopeLine: 1454, flags: DIFlagPublic | DIFlagPrototyped, spFlags: 0)
!945 = !DISubroutineType(types: !946)
!946 = !{!790, !728, !852, !852}
!947 = !DISubprogram(name: "swap", linkageName: "_ZNSt6vectorISt6threadSaIS0_EE4swapERS2_", scope: !468, file: !64, line: 1477, type: !948, scopeLine: 1477, flags: DIFlagPublic | DIFlagPrototyped, spFlags: 0)
!948 = !DISubroutineType(types: !949)
!949 = !{null, !728, !774}
!950 = !DISubprogram(name: "clear", linkageName: "_ZNSt6vectorISt6threadSaIS0_EE5clearEv", scope: !468, file: !64, line: 1495, type: !726, scopeLine: 1495, flags: DIFlagPublic | DIFlagPrototyped, spFlags: 0)
!951 = !DISubprogram(name: "_M_fill_initialize", linkageName: "_ZNSt6vectorISt6threadSaIS0_EE18_M_fill_initializeEmRKS0_", scope: !468, file: !64, line: 1590, type: !782, scopeLine: 1590, flags: DIFlagProtected | DIFlagPrototyped, spFlags: 0)
!952 = !DISubprogram(name: "_M_default_initialize", linkageName: "_ZNSt6vectorISt6threadSaIS0_EE21_M_default_initializeEm", scope: !468, file: !64, line: 1600, type: !878, scopeLine: 1600, flags: DIFlagProtected | DIFlagPrototyped, spFlags: 0)
!953 = !DISubprogram(name: "_M_fill_assign", linkageName: "_ZNSt6vectorISt6threadSaIS0_EE14_M_fill_assignEmRKS0_", scope: !468, file: !64, line: 1642, type: !782, scopeLine: 1642, flags: DIFlagProtected | DIFlagPrototyped, spFlags: 0)
!954 = !DISubprogram(name: "_M_fill_insert", linkageName: "_ZNSt6vectorISt6threadSaIS0_EE14_M_fill_insertEN9__gnu_cxx17__normal_iteratorIPS0_S2_EEmRKS0_", scope: !468, file: !64, line: 1681, type: !955, scopeLine: 1681, flags: DIFlagProtected | DIFlagPrototyped, spFlags: 0)
!955 = !DISubroutineType(types: !956)
!956 = !{null, !728, !790, !63, !741}
!957 = !DISubprogram(name: "_M_default_append", linkageName: "_ZNSt6vectorISt6threadSaIS0_EE17_M_default_appendEm", scope: !468, file: !64, line: 1686, type: !878, scopeLine: 1686, flags: DIFlagProtected | DIFlagPrototyped, spFlags: 0)
!958 = !DISubprogram(name: "_M_shrink_to_fit", linkageName: "_ZNSt6vectorISt6threadSaIS0_EE16_M_shrink_to_fitEv", scope: !468, file: !64, line: 1689, type: !959, scopeLine: 1689, flags: DIFlagProtected | DIFlagPrototyped, spFlags: 0)
!959 = !DISubroutineType(types: !960)
!960 = !{!117, !728}
!961 = !DISubprogram(name: "_M_insert_rval", linkageName: "_ZNSt6vectorISt6threadSaIS0_EE14_M_insert_rvalEN9__gnu_cxx17__normal_iteratorIPKS0_S2_EEOS0_", scope: !468, file: !64, line: 1738, type: !933, scopeLine: 1738, flags: DIFlagProtected | DIFlagPrototyped, spFlags: 0)
!962 = !DISubprogram(name: "_M_emplace_aux", linkageName: "_ZNSt6vectorISt6threadSaIS0_EE14_M_emplace_auxEN9__gnu_cxx17__normal_iteratorIPKS0_S2_EEOS0_", scope: !468, file: !64, line: 1747, type: !933, scopeLine: 1747, flags: DIFlagProtected | DIFlagPrototyped, spFlags: 0)
!963 = !DISubprogram(name: "_M_check_len", linkageName: "_ZNKSt6vectorISt6threadSaIS0_EE12_M_check_lenEmPKc", scope: !468, file: !64, line: 1753, type: !964, scopeLine: 1753, flags: DIFlagProtected | DIFlagPrototyped, spFlags: 0)
!964 = !DISubroutineType(types: !965)
!965 = !{!966, !854, !63, !967}
!966 = !DIDerivedType(tag: DW_TAG_typedef, name: "size_type", scope: !468, file: !64, line: 421, baseType: !65, flags: DIFlagPublic)
!967 = !DIDerivedType(tag: DW_TAG_pointer_type, baseType: !968, size: 64)
!968 = !DIDerivedType(tag: DW_TAG_const_type, baseType: !969)
!969 = !DIBasicType(name: "char", size: 8, encoding: DW_ATE_signed_char)
!970 = !DISubprogram(name: "_S_check_init_len", linkageName: "_ZNSt6vectorISt6threadSaIS0_EE17_S_check_init_lenEmRKS1_", scope: !468, file: !64, line: 1764, type: !971, scopeLine: 1764, flags: DIFlagProtected | DIFlagPrototyped | DIFlagStaticMember, spFlags: 0)
!971 = !DISubroutineType(types: !972)
